
328_sdcard2.elf:     file format elf32-avr

Sections:
Idx Name          Size      VMA       LMA       File off  Algn
  0 .data         00000142  00800100  00005194  00005228  2**0
                  CONTENTS, ALLOC, LOAD, DATA
  1 .text         00005194  00000000  00000000  00000094  2**1
                  CONTENTS, ALLOC, LOAD, READONLY, CODE
  2 .bss          00000302  00800242  00800242  0000536a  2**0
                  ALLOC
  3 .stab         0000294c  00000000  00000000  0000536c  2**2
                  CONTENTS, READONLY, DEBUGGING
  4 .stabstr      00000f80  00000000  00000000  00007cb8  2**0
                  CONTENTS, READONLY, DEBUGGING

Disassembly of section .text:

00000000 <__vectors>:
       0:	0c 94 84 01 	jmp	0x308	; 0x308 <__ctors_end>
       4:	0c 94 a1 01 	jmp	0x342	; 0x342 <__bad_interrupt>
       8:	0c 94 a1 01 	jmp	0x342	; 0x342 <__bad_interrupt>
       c:	0c 94 a1 01 	jmp	0x342	; 0x342 <__bad_interrupt>
      10:	0c 94 a1 01 	jmp	0x342	; 0x342 <__bad_interrupt>
      14:	0c 94 a1 01 	jmp	0x342	; 0x342 <__bad_interrupt>
      18:	0c 94 a1 01 	jmp	0x342	; 0x342 <__bad_interrupt>
      1c:	0c 94 a1 01 	jmp	0x342	; 0x342 <__bad_interrupt>
      20:	0c 94 a1 01 	jmp	0x342	; 0x342 <__bad_interrupt>
      24:	0c 94 a1 01 	jmp	0x342	; 0x342 <__bad_interrupt>
      28:	0c 94 a1 01 	jmp	0x342	; 0x342 <__bad_interrupt>
      2c:	0c 94 a1 01 	jmp	0x342	; 0x342 <__bad_interrupt>
      30:	0c 94 a1 01 	jmp	0x342	; 0x342 <__bad_interrupt>
      34:	0c 94 a1 01 	jmp	0x342	; 0x342 <__bad_interrupt>
      38:	0c 94 a1 01 	jmp	0x342	; 0x342 <__bad_interrupt>
      3c:	0c 94 a1 01 	jmp	0x342	; 0x342 <__bad_interrupt>
      40:	0c 94 a1 01 	jmp	0x342	; 0x342 <__bad_interrupt>
      44:	0c 94 a1 01 	jmp	0x342	; 0x342 <__bad_interrupt>
      48:	0c 94 a0 1f 	jmp	0x3f40	; 0x3f40 <__vector_18>
      4c:	0c 94 a1 01 	jmp	0x342	; 0x342 <__bad_interrupt>
      50:	0c 94 a1 01 	jmp	0x342	; 0x342 <__bad_interrupt>
      54:	0c 94 a4 04 	jmp	0x948	; 0x948 <__vector_21>
      58:	0c 94 a1 01 	jmp	0x342	; 0x342 <__bad_interrupt>
      5c:	0c 94 a1 01 	jmp	0x342	; 0x342 <__bad_interrupt>
      60:	0c 94 a1 01 	jmp	0x342	; 0x342 <__bad_interrupt>
      64:	0c 94 a1 01 	jmp	0x342	; 0x342 <__bad_interrupt>

00000068 <__c.1836>:
      68:	20 4e 6f 20 4b 65 79 20 50 72 65 73 73 65 64 20      No Key Pressed 
      78:	0a 20 00                                            . .

0000007b <__c.1834>:
      7b:	53 44 20 4f 66 66 20 0d 0a 00                       SD Off ...

00000085 <__c.1832>:
      85:	53 44 20 4f 6e 20 0d 0a 00                          SD On ...

0000008e <__c.1830>:
      8e:	20 42 54 20 4f 66 66 20 0d 0a 00                     BT Off ...

00000099 <__c.1828>:
      99:	20 41 44 43 20 4f 66 66 20 0d 0a 00                  ADC Off ...

000000a5 <__c.1778>:
      a5:	2e 2e 44 6f 6e 65 21 0d 0a 00                       ..Done!...

000000af <__c.1773>:
      af:	57 72 69 74 69 6e 67 20 64 61 74 61 20 74 6f 20     Writing data to 
      bf:	53 44 63 61 72 64 2e 2e 0d 0a 00                    SDcard.....

000000ca <__c.1916>:
      ca:	65 72 72 6f 72 20 64 65 6c 65 74 69 6e 67 20 66     error deleting f
      da:	69 6c 65 3a 20 00                                   ile: .

000000e0 <__c.1892>:
      e0:	65 72 72 6f 72 20 6f 70 65 6e 69 6e 67 20 00        error opening .

000000ef <__c.1889>:
      ef:	63 61 6c 6c 20 69 6e 69 74 5f 73 64 63 61 72 64     call init_sdcard
      ff:	28 29 20 66 69 72 73 74 20 0a 00                    () first ..

0000010a <__c.1887>:
     10a:	53 44 20 43 61 72 64 20 6e 6f 74 20 69 6e 69 74     SD Card not init
     11a:	69 61 6c 69 7a 65 64 20 70 72 6f 70 65 72 6c 79     ialized properly
     12a:	0a 00                                               ..

0000012c <__c.1870>:
     12c:	65 72 72 6f 72 20 77 72 69 74 69 6e 67 20 74 6f     error writing to
     13c:	20 66 69 6c 65 0a 00                                 file..

00000143 <__c.1868>:
     143:	65 72 72 6f 72 20 73 65 65 6b 69 6e 67 20 6f 6e     error seeking on
     153:	20 00                                                .

00000155 <__c.1866>:
     155:	65 72 72 6f 72 20 6f 70 65 6e 69 6e 67 20 00        error opening .

00000164 <__c.1863>:
     164:	63 61 6c 6c 20 69 6e 69 74 5f 73 64 63 61 72 64     call init_sdcard
     174:	28 29 20 66 69 72 73 74 0a 00                       () first..

0000017e <__c.1861>:
     17e:	53 44 20 43 61 72 64 20 6e 6f 74 20 69 6e 69 74     SD Card not init
     18e:	69 61 6c 69 7a 65 64 20 70 72 6f 70 65 72 6c 79     ialized properly
     19e:	0a 00                                               ..

000001a0 <__c.1840>:
     1a0:	65 72 72 6f 72 20 77 72 69 74 69 6e 67 20 74 6f     error writing to
     1b0:	20 66 69 6c 65 0a 00                                 file..

000001b7 <__c.1838>:
     1b7:	65 72 72 6f 72 20 73 65 65 6b 69 6e 67 20 6f 6e     error seeking on
     1c7:	20 00                                                .

000001c9 <__c.1836>:
     1c9:	65 72 72 6f 72 20 6f 70 65 6e 69 6e 67 20 00        error opening .

000001d8 <__c.1833>:
     1d8:	63 61 6c 6c 20 69 6e 69 74 5f 73 64 63 61 72 64     call init_sdcard
     1e8:	28 29 20 66 69 72 73 74 0a 00                       () first..

000001f2 <__c.1831>:
     1f2:	53 44 20 43 61 72 64 20 6e 6f 74 20 69 6e 69 74     SD Card not init
     202:	69 61 6c 69 7a 65 64 20 70 72 6f 70 65 72 6c 79     ialized properly
     212:	0a 00                                               ..

00000214 <__c.1819>:
     214:	65 72 72 6f 72 20 63 72 65 61 74 69 6e 67 20 66     error creating f
     224:	69 6c 65 3a 20 00                                   ile: .

0000022a <__c.1800>:
     22a:	6f 70 65 6e 69 6e 67 20 72 6f 6f 74 20 64 69 72     opening root dir
     23a:	65 63 74 6f 72 79 20 66 61 69 6c 65 64 0a 00        ectory failed..

00000249 <__c.1797>:
     249:	6f 70 65 6e 69 6e 67 20 66 69 6c 65 73 79 73 74     opening filesyst
     259:	65 6d 20 66 61 69 6c 65 64 0a 00                    em failed..

00000264 <__c.1795>:
     264:	6f 70 65 6e 69 6e 67 20 70 61 72 74 69 74 69 6f     opening partitio
     274:	6e 20 66 61 69 6c 65 64 0a 00                       n failed..

0000027e <__c.1792>:
     27e:	4d 4d 43 2f 53 44 20 69 6e 69 74 69 61 6c 69 7a     MMC/SD initializ
     28e:	61 74 69 6f 6e 20 66 61 69 6c 65 64 0a 00           ation failed..

0000029c <__c.1971>:
     29c:	66 72 65 65 3a 20 20 20 00                          free:   .

000002a5 <__c.1969>:
     2a5:	66 6f 72 6d 61 74 3a 20 00                          format: .

000002ae <__c.1967>:
     2ae:	77 72 2e 70 72 2e 3a 20 00                          wr.pr.: .

000002b7 <__c.1965>:
     2b7:	63 6f 70 79 3a 20 20 20 00                          copy:   .

000002c0 <__c.1963>:
     2c0:	4d 42 0a 00                                         MB..

000002c4 <__c.1961>:
     2c4:	73 69 7a 65 3a 20 20 20 00                          size:   .

000002cd <__c.1959>:
     2cd:	64 61 74 65 3a 20 20 20 00                          date:   .

000002d6 <__c.1957>:
     2d6:	73 65 72 69 61 6c 3a 20 30 78 00                    serial: 0x.

000002e1 <__c.1955>:
     2e1:	72 65 76 3a 20 20 20 20 00                          rev:    .

000002ea <__c.1953>:
     2ea:	70 72 6f 64 3a 20 20 20 00                          prod:   .

000002f3 <__c.1951>:
     2f3:	6f 65 6d 3a 20 20 20 20 00                          oem:    .

000002fc <__c.1949>:
     2fc:	6d 61 6e 75 66 3a 20 20 30 78 00 00                 manuf:  0x..

00000308 <__ctors_end>:
     308:	11 24       	eor	r1, r1
     30a:	1f be       	out	0x3f, r1	; 63
     30c:	cf ef       	ldi	r28, 0xFF	; 255
     30e:	d8 e0       	ldi	r29, 0x08	; 8
     310:	de bf       	out	0x3e, r29	; 62
     312:	cd bf       	out	0x3d, r28	; 61

00000314 <__do_copy_data>:
     314:	12 e0       	ldi	r17, 0x02	; 2
     316:	a0 e0       	ldi	r26, 0x00	; 0
     318:	b1 e0       	ldi	r27, 0x01	; 1
     31a:	e4 e9       	ldi	r30, 0x94	; 148
     31c:	f1 e5       	ldi	r31, 0x51	; 81
     31e:	02 c0       	rjmp	.+4      	; 0x324 <.do_copy_data_start>

00000320 <.do_copy_data_loop>:
     320:	05 90       	lpm	r0, Z+
     322:	0d 92       	st	X+, r0

00000324 <.do_copy_data_start>:
     324:	a2 34       	cpi	r26, 0x42	; 66
     326:	b1 07       	cpc	r27, r17
     328:	d9 f7       	brne	.-10     	; 0x320 <.do_copy_data_loop>

0000032a <__do_clear_bss>:
     32a:	15 e0       	ldi	r17, 0x05	; 5
     32c:	a2 e4       	ldi	r26, 0x42	; 66
     32e:	b2 e0       	ldi	r27, 0x02	; 2
     330:	01 c0       	rjmp	.+2      	; 0x334 <.do_clear_bss_start>

00000332 <.do_clear_bss_loop>:
     332:	1d 92       	st	X+, r1

00000334 <.do_clear_bss_start>:
     334:	a4 34       	cpi	r26, 0x44	; 68
     336:	b1 07       	cpc	r27, r17
     338:	e1 f7       	brne	.-8      	; 0x332 <.do_clear_bss_loop>
     33a:	0e 94 95 03 	call	0x72a	; 0x72a <main>
     33e:	0c 94 c8 28 	jmp	0x5190	; 0x5190 <_exit>

00000342 <__bad_interrupt>:
     342:	0c 94 00 00 	jmp	0	; 0x0 <__vectors>

00000346 <adc_init>:
     346:	ea e7       	ldi	r30, 0x7A	; 122
     348:	f0 e0       	ldi	r31, 0x00	; 0
     34a:	80 81       	ld	r24, Z
     34c:	87 60       	ori	r24, 0x07	; 7
     34e:	80 83       	st	Z, r24
     350:	80 81       	ld	r24, Z
     352:	88 60       	ori	r24, 0x08	; 8
     354:	80 83       	st	Z, r24
     356:	ab e7       	ldi	r26, 0x7B	; 123
     358:	b0 e0       	ldi	r27, 0x00	; 0
     35a:	8c 91       	ld	r24, X
     35c:	88 7f       	andi	r24, 0xF8	; 248
     35e:	8c 93       	st	X, r24
     360:	ac e7       	ldi	r26, 0x7C	; 124
     362:	b0 e0       	ldi	r27, 0x00	; 0
     364:	8c 91       	ld	r24, X
     366:	80 64       	ori	r24, 0x40	; 64
     368:	8c 93       	st	X, r24
     36a:	80 81       	ld	r24, Z
     36c:	80 62       	ori	r24, 0x20	; 32
     36e:	80 83       	st	Z, r24
     370:	80 81       	ld	r24, Z
     372:	80 68       	ori	r24, 0x80	; 128
     374:	80 83       	st	Z, r24
     376:	80 81       	ld	r24, Z
     378:	80 64       	ori	r24, 0x40	; 64
     37a:	80 83       	st	Z, r24
     37c:	08 95       	ret

0000037e <button1_is_pressed>:
     37e:	4a 99       	sbic	0x09, 2	; 9
     380:	20 c0       	rjmp	.+64     	; 0x3c2 <button1_is_pressed+0x44>
     382:	4b 99       	sbic	0x09, 3	; 9
     384:	1e c0       	rjmp	.+60     	; 0x3c2 <button1_is_pressed+0x44>
     386:	4c 99       	sbic	0x09, 4	; 9
     388:	1c c0       	rjmp	.+56     	; 0x3c2 <button1_is_pressed+0x44>
     38a:	4d 9b       	sbis	0x09, 5	; 9
     38c:	1a c0       	rjmp	.+52     	; 0x3c2 <button1_is_pressed+0x44>
     38e:	8f e4       	ldi	r24, 0x4F	; 79
     390:	93 ec       	ldi	r25, 0xC3	; 195
     392:	a0 e0       	ldi	r26, 0x00	; 0
     394:	b0 e0       	ldi	r27, 0x00	; 0
     396:	01 97       	sbiw	r24, 0x01	; 1
     398:	a1 09       	sbc	r26, r1
     39a:	b1 09       	sbc	r27, r1
     39c:	00 00       	nop
     39e:	01 f0       	breq	.+0      	; 0x3a0 <button1_is_pressed+0x22>
     3a0:	d1 f7       	brne	.-12     	; 0x396 <button1_is_pressed+0x18>
     3a2:	c8 95       	lpm
     3a4:	00 00       	nop
     3a6:	4a 99       	sbic	0x09, 2	; 9
     3a8:	0c c0       	rjmp	.+24     	; 0x3c2 <button1_is_pressed+0x44>
     3aa:	4b 99       	sbic	0x09, 3	; 9
     3ac:	0a c0       	rjmp	.+20     	; 0x3c2 <button1_is_pressed+0x44>
     3ae:	4c 99       	sbic	0x09, 4	; 9
     3b0:	08 c0       	rjmp	.+16     	; 0x3c2 <button1_is_pressed+0x44>
     3b2:	89 b1       	in	r24, 0x09	; 9
     3b4:	82 95       	swap	r24
     3b6:	86 95       	lsr	r24
     3b8:	87 70       	andi	r24, 0x07	; 7
     3ba:	81 70       	andi	r24, 0x01	; 1
     3bc:	28 2f       	mov	r18, r24
     3be:	30 e0       	ldi	r19, 0x00	; 0
     3c0:	02 c0       	rjmp	.+4      	; 0x3c6 <button1_is_pressed+0x48>
     3c2:	20 e0       	ldi	r18, 0x00	; 0
     3c4:	30 e0       	ldi	r19, 0x00	; 0
     3c6:	c9 01       	movw	r24, r18
     3c8:	08 95       	ret

000003ca <portbit1_is_clear>:
     3ca:	4a 99       	sbic	0x09, 2	; 9
     3cc:	0c c0       	rjmp	.+24     	; 0x3e6 <portbit1_is_clear+0x1c>
     3ce:	4b 99       	sbic	0x09, 3	; 9
     3d0:	0a c0       	rjmp	.+20     	; 0x3e6 <portbit1_is_clear+0x1c>
     3d2:	4c 99       	sbic	0x09, 4	; 9
     3d4:	08 c0       	rjmp	.+16     	; 0x3e6 <portbit1_is_clear+0x1c>
     3d6:	89 b1       	in	r24, 0x09	; 9
     3d8:	82 95       	swap	r24
     3da:	86 95       	lsr	r24
     3dc:	87 70       	andi	r24, 0x07	; 7
     3de:	81 70       	andi	r24, 0x01	; 1
     3e0:	28 2f       	mov	r18, r24
     3e2:	30 e0       	ldi	r19, 0x00	; 0
     3e4:	02 c0       	rjmp	.+4      	; 0x3ea <portbit1_is_clear+0x20>
     3e6:	20 e0       	ldi	r18, 0x00	; 0
     3e8:	30 e0       	ldi	r19, 0x00	; 0
     3ea:	c9 01       	movw	r24, r18
     3ec:	08 95       	ret

000003ee <button2_is_pressed>:
     3ee:	4a 99       	sbic	0x09, 2	; 9
     3f0:	21 c0       	rjmp	.+66     	; 0x434 <button2_is_pressed+0x46>
     3f2:	4b 99       	sbic	0x09, 3	; 9
     3f4:	1f c0       	rjmp	.+62     	; 0x434 <button2_is_pressed+0x46>
     3f6:	4c 9b       	sbis	0x09, 4	; 9
     3f8:	1d c0       	rjmp	.+58     	; 0x434 <button2_is_pressed+0x46>
     3fa:	4d 99       	sbic	0x09, 5	; 9
     3fc:	1b c0       	rjmp	.+54     	; 0x434 <button2_is_pressed+0x46>
     3fe:	8f e4       	ldi	r24, 0x4F	; 79
     400:	93 ec       	ldi	r25, 0xC3	; 195
     402:	a0 e0       	ldi	r26, 0x00	; 0
     404:	b0 e0       	ldi	r27, 0x00	; 0
     406:	01 97       	sbiw	r24, 0x01	; 1
     408:	a1 09       	sbc	r26, r1
     40a:	b1 09       	sbc	r27, r1
     40c:	00 00       	nop
     40e:	01 f0       	breq	.+0      	; 0x410 <button2_is_pressed+0x22>
     410:	d1 f7       	brne	.-12     	; 0x406 <button2_is_pressed+0x18>
     412:	c8 95       	lpm
     414:	00 00       	nop
     416:	4a 99       	sbic	0x09, 2	; 9
     418:	0d c0       	rjmp	.+26     	; 0x434 <button2_is_pressed+0x46>
     41a:	4b 99       	sbic	0x09, 3	; 9
     41c:	0b c0       	rjmp	.+22     	; 0x434 <button2_is_pressed+0x46>
     41e:	4c 9b       	sbis	0x09, 4	; 9
     420:	09 c0       	rjmp	.+18     	; 0x434 <button2_is_pressed+0x46>
     422:	89 b1       	in	r24, 0x09	; 9
     424:	82 95       	swap	r24
     426:	86 95       	lsr	r24
     428:	87 70       	andi	r24, 0x07	; 7
     42a:	80 95       	com	r24
     42c:	81 70       	andi	r24, 0x01	; 1
     42e:	28 2f       	mov	r18, r24
     430:	30 e0       	ldi	r19, 0x00	; 0
     432:	02 c0       	rjmp	.+4      	; 0x438 <button2_is_pressed+0x4a>
     434:	20 e0       	ldi	r18, 0x00	; 0
     436:	30 e0       	ldi	r19, 0x00	; 0
     438:	c9 01       	movw	r24, r18
     43a:	08 95       	ret

0000043c <portbit2_is_clear>:
     43c:	4a 99       	sbic	0x09, 2	; 9
     43e:	0d c0       	rjmp	.+26     	; 0x45a <portbit2_is_clear+0x1e>
     440:	4b 99       	sbic	0x09, 3	; 9
     442:	0b c0       	rjmp	.+22     	; 0x45a <portbit2_is_clear+0x1e>
     444:	4c 9b       	sbis	0x09, 4	; 9
     446:	09 c0       	rjmp	.+18     	; 0x45a <portbit2_is_clear+0x1e>
     448:	89 b1       	in	r24, 0x09	; 9
     44a:	82 95       	swap	r24
     44c:	86 95       	lsr	r24
     44e:	87 70       	andi	r24, 0x07	; 7
     450:	80 95       	com	r24
     452:	81 70       	andi	r24, 0x01	; 1
     454:	28 2f       	mov	r18, r24
     456:	30 e0       	ldi	r19, 0x00	; 0
     458:	02 c0       	rjmp	.+4      	; 0x45e <portbit2_is_clear+0x22>
     45a:	20 e0       	ldi	r18, 0x00	; 0
     45c:	30 e0       	ldi	r19, 0x00	; 0
     45e:	c9 01       	movw	r24, r18
     460:	08 95       	ret

00000462 <button3_is_pressed>:
     462:	4a 99       	sbic	0x09, 2	; 9
     464:	20 c0       	rjmp	.+64     	; 0x4a6 <button3_is_pressed+0x44>
     466:	4b 99       	sbic	0x09, 3	; 9
     468:	1e c0       	rjmp	.+60     	; 0x4a6 <button3_is_pressed+0x44>
     46a:	4c 9b       	sbis	0x09, 4	; 9
     46c:	1c c0       	rjmp	.+56     	; 0x4a6 <button3_is_pressed+0x44>
     46e:	4d 9b       	sbis	0x09, 5	; 9
     470:	1a c0       	rjmp	.+52     	; 0x4a6 <button3_is_pressed+0x44>
     472:	8f e4       	ldi	r24, 0x4F	; 79
     474:	93 ec       	ldi	r25, 0xC3	; 195
     476:	a0 e0       	ldi	r26, 0x00	; 0
     478:	b0 e0       	ldi	r27, 0x00	; 0
     47a:	01 97       	sbiw	r24, 0x01	; 1
     47c:	a1 09       	sbc	r26, r1
     47e:	b1 09       	sbc	r27, r1
     480:	00 00       	nop
     482:	01 f0       	breq	.+0      	; 0x484 <button3_is_pressed+0x22>
     484:	d1 f7       	brne	.-12     	; 0x47a <button3_is_pressed+0x18>
     486:	c8 95       	lpm
     488:	00 00       	nop
     48a:	4a 99       	sbic	0x09, 2	; 9
     48c:	0c c0       	rjmp	.+24     	; 0x4a6 <button3_is_pressed+0x44>
     48e:	4b 99       	sbic	0x09, 3	; 9
     490:	0a c0       	rjmp	.+20     	; 0x4a6 <button3_is_pressed+0x44>
     492:	4c 9b       	sbis	0x09, 4	; 9
     494:	08 c0       	rjmp	.+16     	; 0x4a6 <button3_is_pressed+0x44>
     496:	89 b1       	in	r24, 0x09	; 9
     498:	82 95       	swap	r24
     49a:	86 95       	lsr	r24
     49c:	87 70       	andi	r24, 0x07	; 7
     49e:	81 70       	andi	r24, 0x01	; 1
     4a0:	28 2f       	mov	r18, r24
     4a2:	30 e0       	ldi	r19, 0x00	; 0
     4a4:	02 c0       	rjmp	.+4      	; 0x4aa <button3_is_pressed+0x48>
     4a6:	20 e0       	ldi	r18, 0x00	; 0
     4a8:	30 e0       	ldi	r19, 0x00	; 0
     4aa:	c9 01       	movw	r24, r18
     4ac:	08 95       	ret

000004ae <portbit3_is_clear>:
     4ae:	4a 99       	sbic	0x09, 2	; 9
     4b0:	0c c0       	rjmp	.+24     	; 0x4ca <portbit3_is_clear+0x1c>
     4b2:	4b 99       	sbic	0x09, 3	; 9
     4b4:	0a c0       	rjmp	.+20     	; 0x4ca <portbit3_is_clear+0x1c>
     4b6:	4c 9b       	sbis	0x09, 4	; 9
     4b8:	08 c0       	rjmp	.+16     	; 0x4ca <portbit3_is_clear+0x1c>
     4ba:	89 b1       	in	r24, 0x09	; 9
     4bc:	82 95       	swap	r24
     4be:	86 95       	lsr	r24
     4c0:	87 70       	andi	r24, 0x07	; 7
     4c2:	81 70       	andi	r24, 0x01	; 1
     4c4:	28 2f       	mov	r18, r24
     4c6:	30 e0       	ldi	r19, 0x00	; 0
     4c8:	02 c0       	rjmp	.+4      	; 0x4ce <portbit3_is_clear+0x20>
     4ca:	20 e0       	ldi	r18, 0x00	; 0
     4cc:	30 e0       	ldi	r19, 0x00	; 0
     4ce:	c9 01       	movw	r24, r18
     4d0:	08 95       	ret

000004d2 <button4_is_pressed>:
     4d2:	4a 99       	sbic	0x09, 2	; 9
     4d4:	21 c0       	rjmp	.+66     	; 0x518 <button4_is_pressed+0x46>
     4d6:	4b 9b       	sbis	0x09, 3	; 9
     4d8:	1f c0       	rjmp	.+62     	; 0x518 <button4_is_pressed+0x46>
     4da:	4c 99       	sbic	0x09, 4	; 9
     4dc:	1d c0       	rjmp	.+58     	; 0x518 <button4_is_pressed+0x46>
     4de:	4d 99       	sbic	0x09, 5	; 9
     4e0:	1b c0       	rjmp	.+54     	; 0x518 <button4_is_pressed+0x46>
     4e2:	8f e4       	ldi	r24, 0x4F	; 79
     4e4:	93 ec       	ldi	r25, 0xC3	; 195
     4e6:	a0 e0       	ldi	r26, 0x00	; 0
     4e8:	b0 e0       	ldi	r27, 0x00	; 0
     4ea:	01 97       	sbiw	r24, 0x01	; 1
     4ec:	a1 09       	sbc	r26, r1
     4ee:	b1 09       	sbc	r27, r1
     4f0:	00 00       	nop
     4f2:	01 f0       	breq	.+0      	; 0x4f4 <button4_is_pressed+0x22>
     4f4:	d1 f7       	brne	.-12     	; 0x4ea <button4_is_pressed+0x18>
     4f6:	c8 95       	lpm
     4f8:	00 00       	nop
     4fa:	4a 99       	sbic	0x09, 2	; 9
     4fc:	0d c0       	rjmp	.+26     	; 0x518 <button4_is_pressed+0x46>
     4fe:	4b 9b       	sbis	0x09, 3	; 9
     500:	0b c0       	rjmp	.+22     	; 0x518 <button4_is_pressed+0x46>
     502:	4c 99       	sbic	0x09, 4	; 9
     504:	09 c0       	rjmp	.+18     	; 0x518 <button4_is_pressed+0x46>
     506:	89 b1       	in	r24, 0x09	; 9
     508:	82 95       	swap	r24
     50a:	86 95       	lsr	r24
     50c:	87 70       	andi	r24, 0x07	; 7
     50e:	80 95       	com	r24
     510:	81 70       	andi	r24, 0x01	; 1
     512:	28 2f       	mov	r18, r24
     514:	30 e0       	ldi	r19, 0x00	; 0
     516:	02 c0       	rjmp	.+4      	; 0x51c <button4_is_pressed+0x4a>
     518:	20 e0       	ldi	r18, 0x00	; 0
     51a:	30 e0       	ldi	r19, 0x00	; 0
     51c:	c9 01       	movw	r24, r18
     51e:	08 95       	ret

00000520 <portbit4_is_clear>:
     520:	4a 99       	sbic	0x09, 2	; 9
     522:	0d c0       	rjmp	.+26     	; 0x53e <portbit4_is_clear+0x1e>
     524:	4b 9b       	sbis	0x09, 3	; 9
     526:	0b c0       	rjmp	.+22     	; 0x53e <portbit4_is_clear+0x1e>
     528:	4c 99       	sbic	0x09, 4	; 9
     52a:	09 c0       	rjmp	.+18     	; 0x53e <portbit4_is_clear+0x1e>
     52c:	89 b1       	in	r24, 0x09	; 9
     52e:	82 95       	swap	r24
     530:	86 95       	lsr	r24
     532:	87 70       	andi	r24, 0x07	; 7
     534:	80 95       	com	r24
     536:	81 70       	andi	r24, 0x01	; 1
     538:	28 2f       	mov	r18, r24
     53a:	30 e0       	ldi	r19, 0x00	; 0
     53c:	02 c0       	rjmp	.+4      	; 0x542 <portbit4_is_clear+0x22>
     53e:	20 e0       	ldi	r18, 0x00	; 0
     540:	30 e0       	ldi	r19, 0x00	; 0
     542:	c9 01       	movw	r24, r18
     544:	08 95       	ret

00000546 <button5_is_pressed>:
     546:	4a 99       	sbic	0x09, 2	; 9
     548:	20 c0       	rjmp	.+64     	; 0x58a <button5_is_pressed+0x44>
     54a:	4b 9b       	sbis	0x09, 3	; 9
     54c:	1e c0       	rjmp	.+60     	; 0x58a <button5_is_pressed+0x44>
     54e:	4c 99       	sbic	0x09, 4	; 9
     550:	1c c0       	rjmp	.+56     	; 0x58a <button5_is_pressed+0x44>
     552:	4d 9b       	sbis	0x09, 5	; 9
     554:	1a c0       	rjmp	.+52     	; 0x58a <button5_is_pressed+0x44>
     556:	8f e4       	ldi	r24, 0x4F	; 79
     558:	93 ec       	ldi	r25, 0xC3	; 195
     55a:	a0 e0       	ldi	r26, 0x00	; 0
     55c:	b0 e0       	ldi	r27, 0x00	; 0
     55e:	01 97       	sbiw	r24, 0x01	; 1
     560:	a1 09       	sbc	r26, r1
     562:	b1 09       	sbc	r27, r1
     564:	00 00       	nop
     566:	01 f0       	breq	.+0      	; 0x568 <button5_is_pressed+0x22>
     568:	d1 f7       	brne	.-12     	; 0x55e <button5_is_pressed+0x18>
     56a:	c8 95       	lpm
     56c:	00 00       	nop
     56e:	4a 99       	sbic	0x09, 2	; 9
     570:	0c c0       	rjmp	.+24     	; 0x58a <button5_is_pressed+0x44>
     572:	4b 9b       	sbis	0x09, 3	; 9
     574:	0a c0       	rjmp	.+20     	; 0x58a <button5_is_pressed+0x44>
     576:	4c 99       	sbic	0x09, 4	; 9
     578:	08 c0       	rjmp	.+16     	; 0x58a <button5_is_pressed+0x44>
     57a:	89 b1       	in	r24, 0x09	; 9
     57c:	82 95       	swap	r24
     57e:	86 95       	lsr	r24
     580:	87 70       	andi	r24, 0x07	; 7
     582:	81 70       	andi	r24, 0x01	; 1
     584:	28 2f       	mov	r18, r24
     586:	30 e0       	ldi	r19, 0x00	; 0
     588:	02 c0       	rjmp	.+4      	; 0x58e <button5_is_pressed+0x48>
     58a:	20 e0       	ldi	r18, 0x00	; 0
     58c:	30 e0       	ldi	r19, 0x00	; 0
     58e:	c9 01       	movw	r24, r18
     590:	08 95       	ret

00000592 <portbit5_is_clear>:
     592:	4a 99       	sbic	0x09, 2	; 9
     594:	0c c0       	rjmp	.+24     	; 0x5ae <portbit5_is_clear+0x1c>
     596:	4b 9b       	sbis	0x09, 3	; 9
     598:	0a c0       	rjmp	.+20     	; 0x5ae <portbit5_is_clear+0x1c>
     59a:	4c 99       	sbic	0x09, 4	; 9
     59c:	08 c0       	rjmp	.+16     	; 0x5ae <portbit5_is_clear+0x1c>
     59e:	89 b1       	in	r24, 0x09	; 9
     5a0:	82 95       	swap	r24
     5a2:	86 95       	lsr	r24
     5a4:	87 70       	andi	r24, 0x07	; 7
     5a6:	81 70       	andi	r24, 0x01	; 1
     5a8:	28 2f       	mov	r18, r24
     5aa:	30 e0       	ldi	r19, 0x00	; 0
     5ac:	02 c0       	rjmp	.+4      	; 0x5b2 <portbit5_is_clear+0x20>
     5ae:	20 e0       	ldi	r18, 0x00	; 0
     5b0:	30 e0       	ldi	r19, 0x00	; 0
     5b2:	c9 01       	movw	r24, r18
     5b4:	08 95       	ret

000005b6 <button6_is_pressed>:
     5b6:	4a 99       	sbic	0x09, 2	; 9
     5b8:	21 c0       	rjmp	.+66     	; 0x5fc <button6_is_pressed+0x46>
     5ba:	4b 9b       	sbis	0x09, 3	; 9
     5bc:	1f c0       	rjmp	.+62     	; 0x5fc <button6_is_pressed+0x46>
     5be:	4c 9b       	sbis	0x09, 4	; 9
     5c0:	1d c0       	rjmp	.+58     	; 0x5fc <button6_is_pressed+0x46>
     5c2:	4d 99       	sbic	0x09, 5	; 9
     5c4:	1b c0       	rjmp	.+54     	; 0x5fc <button6_is_pressed+0x46>
     5c6:	8f e4       	ldi	r24, 0x4F	; 79
     5c8:	93 ec       	ldi	r25, 0xC3	; 195
     5ca:	a0 e0       	ldi	r26, 0x00	; 0
     5cc:	b0 e0       	ldi	r27, 0x00	; 0
     5ce:	01 97       	sbiw	r24, 0x01	; 1
     5d0:	a1 09       	sbc	r26, r1
     5d2:	b1 09       	sbc	r27, r1
     5d4:	00 00       	nop
     5d6:	01 f0       	breq	.+0      	; 0x5d8 <button6_is_pressed+0x22>
     5d8:	d1 f7       	brne	.-12     	; 0x5ce <button6_is_pressed+0x18>
     5da:	c8 95       	lpm
     5dc:	00 00       	nop
     5de:	4a 99       	sbic	0x09, 2	; 9
     5e0:	0d c0       	rjmp	.+26     	; 0x5fc <button6_is_pressed+0x46>
     5e2:	4b 9b       	sbis	0x09, 3	; 9
     5e4:	0b c0       	rjmp	.+22     	; 0x5fc <button6_is_pressed+0x46>
     5e6:	4c 9b       	sbis	0x09, 4	; 9
     5e8:	09 c0       	rjmp	.+18     	; 0x5fc <button6_is_pressed+0x46>
     5ea:	89 b1       	in	r24, 0x09	; 9
     5ec:	82 95       	swap	r24
     5ee:	86 95       	lsr	r24
     5f0:	87 70       	andi	r24, 0x07	; 7
     5f2:	80 95       	com	r24
     5f4:	81 70       	andi	r24, 0x01	; 1
     5f6:	28 2f       	mov	r18, r24
     5f8:	30 e0       	ldi	r19, 0x00	; 0
     5fa:	02 c0       	rjmp	.+4      	; 0x600 <button6_is_pressed+0x4a>
     5fc:	20 e0       	ldi	r18, 0x00	; 0
     5fe:	30 e0       	ldi	r19, 0x00	; 0
     600:	c9 01       	movw	r24, r18
     602:	08 95       	ret

00000604 <portbit6_is_clear>:
     604:	4a 99       	sbic	0x09, 2	; 9
     606:	0d c0       	rjmp	.+26     	; 0x622 <portbit6_is_clear+0x1e>
     608:	4b 9b       	sbis	0x09, 3	; 9
     60a:	0b c0       	rjmp	.+22     	; 0x622 <portbit6_is_clear+0x1e>
     60c:	4c 9b       	sbis	0x09, 4	; 9
     60e:	09 c0       	rjmp	.+18     	; 0x622 <portbit6_is_clear+0x1e>
     610:	89 b1       	in	r24, 0x09	; 9
     612:	82 95       	swap	r24
     614:	86 95       	lsr	r24
     616:	87 70       	andi	r24, 0x07	; 7
     618:	80 95       	com	r24
     61a:	81 70       	andi	r24, 0x01	; 1
     61c:	28 2f       	mov	r18, r24
     61e:	30 e0       	ldi	r19, 0x00	; 0
     620:	02 c0       	rjmp	.+4      	; 0x626 <portbit6_is_clear+0x22>
     622:	20 e0       	ldi	r18, 0x00	; 0
     624:	30 e0       	ldi	r19, 0x00	; 0
     626:	c9 01       	movw	r24, r18
     628:	08 95       	ret

0000062a <button7_is_pressed>:
     62a:	4a 99       	sbic	0x09, 2	; 9
     62c:	23 c0       	rjmp	.+70     	; 0x674 <button7_is_pressed+0x4a>
     62e:	4b 9b       	sbis	0x09, 3	; 9
     630:	21 c0       	rjmp	.+66     	; 0x674 <button7_is_pressed+0x4a>
     632:	4c 9b       	sbis	0x09, 4	; 9
     634:	1f c0       	rjmp	.+62     	; 0x674 <button7_is_pressed+0x4a>
     636:	4d 9b       	sbis	0x09, 5	; 9
     638:	1d c0       	rjmp	.+58     	; 0x674 <button7_is_pressed+0x4a>
     63a:	8f e4       	ldi	r24, 0x4F	; 79
     63c:	93 ec       	ldi	r25, 0xC3	; 195
     63e:	a0 e0       	ldi	r26, 0x00	; 0
     640:	b0 e0       	ldi	r27, 0x00	; 0
     642:	01 97       	sbiw	r24, 0x01	; 1
     644:	a1 09       	sbc	r26, r1
     646:	b1 09       	sbc	r27, r1
     648:	00 00       	nop
     64a:	01 f0       	breq	.+0      	; 0x64c <button7_is_pressed+0x22>
     64c:	d1 f7       	brne	.-12     	; 0x642 <button7_is_pressed+0x18>
     64e:	c8 95       	lpm
     650:	00 00       	nop
     652:	4a 99       	sbic	0x09, 2	; 9
     654:	0f c0       	rjmp	.+30     	; 0x674 <button7_is_pressed+0x4a>
     656:	4b 9b       	sbis	0x09, 3	; 9
     658:	0d c0       	rjmp	.+26     	; 0x674 <button7_is_pressed+0x4a>
     65a:	4c 9b       	sbis	0x09, 4	; 9
     65c:	0b c0       	rjmp	.+22     	; 0x674 <button7_is_pressed+0x4a>
     65e:	89 b1       	in	r24, 0x09	; 9
     660:	28 2f       	mov	r18, r24
     662:	30 e0       	ldi	r19, 0x00	; 0
     664:	85 e0       	ldi	r24, 0x05	; 5
     666:	36 95       	lsr	r19
     668:	27 95       	ror	r18
     66a:	8a 95       	dec	r24
     66c:	e1 f7       	brne	.-8      	; 0x666 <button7_is_pressed+0x3c>
     66e:	21 70       	andi	r18, 0x01	; 1
     670:	30 70       	andi	r19, 0x00	; 0
     672:	02 c0       	rjmp	.+4      	; 0x678 <button7_is_pressed+0x4e>
     674:	20 e0       	ldi	r18, 0x00	; 0
     676:	30 e0       	ldi	r19, 0x00	; 0
     678:	c9 01       	movw	r24, r18
     67a:	08 95       	ret

0000067c <portbit7_is_clear>:
     67c:	4a 99       	sbic	0x09, 2	; 9
     67e:	0f c0       	rjmp	.+30     	; 0x69e <portbit7_is_clear+0x22>
     680:	4b 9b       	sbis	0x09, 3	; 9
     682:	0d c0       	rjmp	.+26     	; 0x69e <portbit7_is_clear+0x22>
     684:	4c 9b       	sbis	0x09, 4	; 9
     686:	0b c0       	rjmp	.+22     	; 0x69e <portbit7_is_clear+0x22>
     688:	89 b1       	in	r24, 0x09	; 9
     68a:	28 2f       	mov	r18, r24
     68c:	30 e0       	ldi	r19, 0x00	; 0
     68e:	95 e0       	ldi	r25, 0x05	; 5
     690:	36 95       	lsr	r19
     692:	27 95       	ror	r18
     694:	9a 95       	dec	r25
     696:	e1 f7       	brne	.-8      	; 0x690 <portbit7_is_clear+0x14>
     698:	21 70       	andi	r18, 0x01	; 1
     69a:	30 70       	andi	r19, 0x00	; 0
     69c:	02 c0       	rjmp	.+4      	; 0x6a2 <portbit7_is_clear+0x26>
     69e:	20 e0       	ldi	r18, 0x00	; 0
     6a0:	30 e0       	ldi	r19, 0x00	; 0
     6a2:	c9 01       	movw	r24, r18
     6a4:	08 95       	ret

000006a6 <button8_is_pressed>:
     6a6:	4a 9b       	sbis	0x09, 2	; 9
     6a8:	25 c0       	rjmp	.+74     	; 0x6f4 <button8_is_pressed+0x4e>
     6aa:	4b 99       	sbic	0x09, 3	; 9
     6ac:	23 c0       	rjmp	.+70     	; 0x6f4 <button8_is_pressed+0x4e>
     6ae:	4c 99       	sbic	0x09, 4	; 9
     6b0:	21 c0       	rjmp	.+66     	; 0x6f4 <button8_is_pressed+0x4e>
     6b2:	4d 99       	sbic	0x09, 5	; 9
     6b4:	1f c0       	rjmp	.+62     	; 0x6f4 <button8_is_pressed+0x4e>
     6b6:	8f e4       	ldi	r24, 0x4F	; 79
     6b8:	93 ec       	ldi	r25, 0xC3	; 195
     6ba:	a0 e0       	ldi	r26, 0x00	; 0
     6bc:	b0 e0       	ldi	r27, 0x00	; 0
     6be:	01 97       	sbiw	r24, 0x01	; 1
     6c0:	a1 09       	sbc	r26, r1
     6c2:	b1 09       	sbc	r27, r1
     6c4:	00 00       	nop
     6c6:	01 f0       	breq	.+0      	; 0x6c8 <button8_is_pressed+0x22>
     6c8:	d1 f7       	brne	.-12     	; 0x6be <button8_is_pressed+0x18>
     6ca:	c8 95       	lpm
     6cc:	00 00       	nop
     6ce:	4a 9b       	sbis	0x09, 2	; 9
     6d0:	11 c0       	rjmp	.+34     	; 0x6f4 <button8_is_pressed+0x4e>
     6d2:	4b 99       	sbic	0x09, 3	; 9
     6d4:	0f c0       	rjmp	.+30     	; 0x6f4 <button8_is_pressed+0x4e>
     6d6:	4c 99       	sbic	0x09, 4	; 9
     6d8:	0d c0       	rjmp	.+26     	; 0x6f4 <button8_is_pressed+0x4e>
     6da:	89 b1       	in	r24, 0x09	; 9
     6dc:	28 2f       	mov	r18, r24
     6de:	30 e0       	ldi	r19, 0x00	; 0
     6e0:	45 e0       	ldi	r20, 0x05	; 5
     6e2:	36 95       	lsr	r19
     6e4:	27 95       	ror	r18
     6e6:	4a 95       	dec	r20
     6e8:	e1 f7       	brne	.-8      	; 0x6e2 <button8_is_pressed+0x3c>
     6ea:	20 95       	com	r18
     6ec:	30 95       	com	r19
     6ee:	21 70       	andi	r18, 0x01	; 1
     6f0:	30 70       	andi	r19, 0x00	; 0
     6f2:	02 c0       	rjmp	.+4      	; 0x6f8 <button8_is_pressed+0x52>
     6f4:	20 e0       	ldi	r18, 0x00	; 0
     6f6:	30 e0       	ldi	r19, 0x00	; 0
     6f8:	c9 01       	movw	r24, r18
     6fa:	08 95       	ret

000006fc <portbit8_is_clear>:
     6fc:	4a 9b       	sbis	0x09, 2	; 9
     6fe:	11 c0       	rjmp	.+34     	; 0x722 <portbit8_is_clear+0x26>
     700:	4b 99       	sbic	0x09, 3	; 9
     702:	0f c0       	rjmp	.+30     	; 0x722 <portbit8_is_clear+0x26>
     704:	4c 99       	sbic	0x09, 4	; 9
     706:	0d c0       	rjmp	.+26     	; 0x722 <portbit8_is_clear+0x26>
     708:	89 b1       	in	r24, 0x09	; 9
     70a:	28 2f       	mov	r18, r24
     70c:	30 e0       	ldi	r19, 0x00	; 0
     70e:	55 e0       	ldi	r21, 0x05	; 5
     710:	36 95       	lsr	r19
     712:	27 95       	ror	r18
     714:	5a 95       	dec	r21
     716:	e1 f7       	brne	.-8      	; 0x710 <portbit8_is_clear+0x14>
     718:	20 95       	com	r18
     71a:	30 95       	com	r19
     71c:	21 70       	andi	r18, 0x01	; 1
     71e:	30 70       	andi	r19, 0x00	; 0
     720:	02 c0       	rjmp	.+4      	; 0x726 <portbit8_is_clear+0x2a>
     722:	20 e0       	ldi	r18, 0x00	; 0
     724:	30 e0       	ldi	r19, 0x00	; 0
     726:	c9 01       	movw	r24, r18
     728:	08 95       	ret

0000072a <main>:
     72a:	af 92       	push	r10
     72c:	bf 92       	push	r11
     72e:	cf 92       	push	r12
     730:	df 92       	push	r13
     732:	ef 92       	push	r14
     734:	ff 92       	push	r15
     736:	0f 93       	push	r16
     738:	1f 93       	push	r17
     73a:	39 9a       	sbi	0x07, 1	; 7
     73c:	8a b1       	in	r24, 0x0a	; 10
     73e:	83 7c       	andi	r24, 0xC3	; 195
     740:	8a b9       	out	0x0a, r24	; 10
     742:	56 9a       	sbi	0x0a, 6	; 10
     744:	57 9a       	sbi	0x0a, 7	; 10
     746:	41 98       	cbi	0x08, 1	; 8
     748:	5f 9a       	sbi	0x0b, 7	; 11
     74a:	0e 94 75 1e 	call	0x3cea	; 0x3cea <uart_init>
     74e:	0e 94 a3 01 	call	0x346	; 0x346 <adc_init>
     752:	0e 94 53 1d 	call	0x3aa6	; 0x3aa6 <init_sdcard>
     756:	80 e0       	ldi	r24, 0x00	; 0
     758:	91 e0       	ldi	r25, 0x01	; 1
     75a:	0e 94 0c 1b 	call	0x3618	; 0x3618 <delete_file>
     75e:	80 e0       	ldi	r24, 0x00	; 0
     760:	91 e0       	ldi	r25, 0x01	; 1
     762:	0e 94 1f 1d 	call	0x3a3e	; 0x3a3e <create_file>
     766:	89 2b       	or	r24, r25
     768:	d1 f7       	brne	.-12     	; 0x75e <main+0x34>
     76a:	7f e1       	ldi	r23, 0x1F	; 31
     76c:	e7 2e       	mov	r14, r23
     76e:	71 ea       	ldi	r23, 0xA1	; 161
     770:	f7 2e       	mov	r15, r23
     772:	77 e0       	ldi	r23, 0x07	; 7
     774:	07 2f       	mov	r16, r23
     776:	11 2d       	mov	r17, r1
     778:	6f e7       	ldi	r22, 0x7F	; 127
     77a:	a6 2e       	mov	r10, r22
     77c:	66 e9       	ldi	r22, 0x96	; 150
     77e:	b6 2e       	mov	r11, r22
     780:	68 e9       	ldi	r22, 0x98	; 152
     782:	c6 2e       	mov	r12, r22
     784:	d1 2c       	mov	r13, r1
     786:	0e 94 bf 01 	call	0x37e	; 0x37e <button1_is_pressed>
     78a:	89 2b       	or	r24, r25
     78c:	11 f0       	breq	.+4      	; 0x792 <main+0x68>
     78e:	78 94       	sei
     790:	fa cf       	rjmp	.-12     	; 0x786 <main+0x5c>
     792:	0e 94 f7 01 	call	0x3ee	; 0x3ee <button2_is_pressed>
     796:	89 2b       	or	r24, r25
     798:	21 f0       	breq	.+8      	; 0x7a2 <main+0x78>
     79a:	f8 94       	cli
     79c:	89 e9       	ldi	r24, 0x99	; 153
     79e:	90 e0       	ldi	r25, 0x00	; 0
     7a0:	4d c0       	rjmp	.+154    	; 0x83c <main+0x112>
     7a2:	0e 94 31 02 	call	0x462	; 0x462 <button3_is_pressed>
     7a6:	89 2b       	or	r24, r25
     7a8:	e9 f0       	breq	.+58     	; 0x7e4 <main+0xba>
     7aa:	5e 9a       	sbi	0x0b, 6	; 11
     7ac:	d8 01       	movw	r26, r16
     7ae:	c7 01       	movw	r24, r14
     7b0:	01 97       	sbiw	r24, 0x01	; 1
     7b2:	a1 09       	sbc	r26, r1
     7b4:	b1 09       	sbc	r27, r1
     7b6:	00 00       	nop
     7b8:	01 f0       	breq	.+0      	; 0x7ba <main+0x90>
     7ba:	d1 f7       	brne	.-12     	; 0x7b0 <main+0x86>
     7bc:	c8 95       	lpm
     7be:	00 00       	nop
     7c0:	d6 01       	movw	r26, r12
     7c2:	c5 01       	movw	r24, r10
     7c4:	01 97       	sbiw	r24, 0x01	; 1
     7c6:	a1 09       	sbc	r26, r1
     7c8:	b1 09       	sbc	r27, r1
     7ca:	00 00       	nop
     7cc:	01 f0       	breq	.+0      	; 0x7ce <main+0xa4>
     7ce:	d1 f7       	brne	.-12     	; 0x7c4 <main+0x9a>
     7d0:	c8 95       	lpm
     7d2:	00 00       	nop
     7d4:	80 e0       	ldi	r24, 0x00	; 0
     7d6:	91 e0       	ldi	r25, 0x01	; 1
     7d8:	0e 94 80 1b 	call	0x3700	; 0x3700 <display_file>
     7dc:	83 e2       	ldi	r24, 0x23	; 35
     7de:	0e 94 81 1e 	call	0x3d02	; 0x3d02 <uart_putc>
     7e2:	d1 cf       	rjmp	.-94     	; 0x786 <main+0x5c>
     7e4:	0e 94 69 02 	call	0x4d2	; 0x4d2 <button4_is_pressed>
     7e8:	89 2b       	or	r24, r25
     7ea:	31 f0       	breq	.+12     	; 0x7f8 <main+0xce>
     7ec:	8e e8       	ldi	r24, 0x8E	; 142
     7ee:	90 e0       	ldi	r25, 0x00	; 0
     7f0:	0e 94 7d 1f 	call	0x3efa	; 0x3efa <uart_puts_p>
     7f4:	5e 98       	cbi	0x0b, 6	; 11
     7f6:	24 c0       	rjmp	.+72     	; 0x840 <main+0x116>
     7f8:	0e 94 a3 02 	call	0x546	; 0x546 <button5_is_pressed>
     7fc:	89 2b       	or	r24, r25
     7fe:	11 f0       	breq	.+4      	; 0x804 <main+0xda>
     800:	41 9a       	sbi	0x08, 1	; 8
     802:	1e c0       	rjmp	.+60     	; 0x840 <main+0x116>
     804:	0e 94 db 02 	call	0x5b6	; 0x5b6 <button6_is_pressed>
     808:	89 2b       	or	r24, r25
     80a:	11 f0       	breq	.+4      	; 0x810 <main+0xe6>
     80c:	41 98       	cbi	0x08, 1	; 8
     80e:	18 c0       	rjmp	.+48     	; 0x840 <main+0x116>
     810:	0e 94 15 03 	call	0x62a	; 0x62a <button7_is_pressed>
     814:	89 2b       	or	r24, r25
     816:	31 f0       	breq	.+12     	; 0x824 <main+0xfa>
     818:	85 e8       	ldi	r24, 0x85	; 133
     81a:	90 e0       	ldi	r25, 0x00	; 0
     81c:	0e 94 7d 1f 	call	0x3efa	; 0x3efa <uart_puts_p>
     820:	5f 9a       	sbi	0x0b, 7	; 11
     822:	0e c0       	rjmp	.+28     	; 0x840 <main+0x116>
     824:	0e 94 53 03 	call	0x6a6	; 0x6a6 <button8_is_pressed>
     828:	89 2b       	or	r24, r25
     82a:	31 f0       	breq	.+12     	; 0x838 <main+0x10e>
     82c:	8b e7       	ldi	r24, 0x7B	; 123
     82e:	90 e0       	ldi	r25, 0x00	; 0
     830:	0e 94 7d 1f 	call	0x3efa	; 0x3efa <uart_puts_p>
     834:	5f 98       	cbi	0x0b, 7	; 11
     836:	04 c0       	rjmp	.+8      	; 0x840 <main+0x116>
     838:	88 e6       	ldi	r24, 0x68	; 104
     83a:	90 e0       	ldi	r25, 0x00	; 0
     83c:	0e 94 7d 1f 	call	0x3efa	; 0x3efa <uart_puts_p>
     840:	d8 01       	movw	r26, r16
     842:	c7 01       	movw	r24, r14
     844:	01 97       	sbiw	r24, 0x01	; 1
     846:	a1 09       	sbc	r26, r1
     848:	b1 09       	sbc	r27, r1
     84a:	00 00       	nop
     84c:	01 f0       	breq	.+0      	; 0x84e <main+0x124>
     84e:	d1 f7       	brne	.-12     	; 0x844 <main+0x11a>
     850:	c8 95       	lpm
     852:	00 00       	nop
     854:	98 cf       	rjmp	.-208    	; 0x786 <main+0x5c>

00000856 <EEPROM_write>:
     856:	ef 92       	push	r14
     858:	ff 92       	push	r15
     85a:	0f 93       	push	r16
     85c:	1f 93       	push	r17
     85e:	7c 01       	movw	r14, r24
     860:	80 91 48 02 	lds	r24, 0x0248
     864:	90 91 49 02 	lds	r25, 0x0249
     868:	b7 01       	movw	r22, r14
     86a:	0e 94 cb 27 	call	0x4f96	; 0x4f96 <__eewr_word_m328p>
     86e:	20 91 48 02 	lds	r18, 0x0248
     872:	30 91 49 02 	lds	r19, 0x0249
     876:	8d b7       	in	r24, 0x3d	; 61
     878:	9e b7       	in	r25, 0x3e	; 62
     87a:	08 97       	sbiw	r24, 0x08	; 8
     87c:	0f b6       	in	r0, 0x3f	; 63
     87e:	f8 94       	cli
     880:	9e bf       	out	0x3e, r25	; 62
     882:	0f be       	out	0x3f, r0	; 63
     884:	8d bf       	out	0x3d, r24	; 61
     886:	ed b7       	in	r30, 0x3d	; 61
     888:	fe b7       	in	r31, 0x3e	; 62
     88a:	31 96       	adiw	r30, 0x01	; 1
     88c:	06 e2       	ldi	r16, 0x26	; 38
     88e:	15 e0       	ldi	r17, 0x05	; 5
     890:	ad b7       	in	r26, 0x3d	; 61
     892:	be b7       	in	r27, 0x3e	; 62
     894:	12 96       	adiw	r26, 0x02	; 2
     896:	1c 93       	st	X, r17
     898:	0e 93       	st	-X, r16
     89a:	11 97       	sbiw	r26, 0x01	; 1
     89c:	88 e0       	ldi	r24, 0x08	; 8
     89e:	91 e0       	ldi	r25, 0x01	; 1
     8a0:	93 83       	std	Z+3, r25	; 0x03
     8a2:	82 83       	std	Z+2, r24	; 0x02
     8a4:	f5 82       	std	Z+5, r15	; 0x05
     8a6:	e4 82       	std	Z+4, r14	; 0x04
     8a8:	37 83       	std	Z+7, r19	; 0x07
     8aa:	26 83       	std	Z+6, r18	; 0x06
     8ac:	0e 94 82 25 	call	0x4b04	; 0x4b04 <sprintf>
     8b0:	8d b7       	in	r24, 0x3d	; 61
     8b2:	9e b7       	in	r25, 0x3e	; 62
     8b4:	08 96       	adiw	r24, 0x08	; 8
     8b6:	0f b6       	in	r0, 0x3f	; 63
     8b8:	f8 94       	cli
     8ba:	9e bf       	out	0x3e, r25	; 62
     8bc:	0f be       	out	0x3f, r0	; 63
     8be:	8d bf       	out	0x3d, r24	; 61
     8c0:	c8 01       	movw	r24, r16
     8c2:	0e 94 70 1f 	call	0x3ee0	; 0x3ee0 <uart_puts>
     8c6:	80 91 48 02 	lds	r24, 0x0248
     8ca:	90 91 49 02 	lds	r25, 0x0249
     8ce:	02 96       	adiw	r24, 0x02	; 2
     8d0:	90 93 49 02 	sts	0x0249, r25
     8d4:	80 93 48 02 	sts	0x0248, r24
     8d8:	80 91 48 02 	lds	r24, 0x0248
     8dc:	90 91 49 02 	lds	r25, 0x0249
     8e0:	80 50       	subi	r24, 0x00	; 0
     8e2:	94 40       	sbci	r25, 0x04	; 4
     8e4:	60 f1       	brcs	.+88     	; 0x93e <__stack+0x3f>
     8e6:	8f ea       	ldi	r24, 0xAF	; 175
     8e8:	90 e0       	ldi	r25, 0x00	; 0
     8ea:	0e 94 7d 1f 	call	0x3efa	; 0x3efa <uart_puts_p>
     8ee:	10 92 23 05 	sts	0x0523, r1
     8f2:	10 92 22 05 	sts	0x0522, r1
     8f6:	14 c0       	rjmp	.+40     	; 0x920 <__stack+0x21>
     8f8:	80 91 22 05 	lds	r24, 0x0522
     8fc:	90 91 23 05 	lds	r25, 0x0523
     900:	0e 94 c5 27 	call	0x4f8a	; 0x4f8a <__eerd_word_m328p>
     904:	bc 01       	movw	r22, r24
     906:	80 e0       	ldi	r24, 0x00	; 0
     908:	91 e0       	ldi	r25, 0x01	; 1
     90a:	0e 94 73 1c 	call	0x38e6	; 0x38e6 <write_data>
     90e:	80 91 22 05 	lds	r24, 0x0522
     912:	90 91 23 05 	lds	r25, 0x0523
     916:	02 96       	adiw	r24, 0x02	; 2
     918:	90 93 23 05 	sts	0x0523, r25
     91c:	80 93 22 05 	sts	0x0522, r24
     920:	80 91 22 05 	lds	r24, 0x0522
     924:	90 91 23 05 	lds	r25, 0x0523
     928:	80 50       	subi	r24, 0x00	; 0
     92a:	94 40       	sbci	r25, 0x04	; 4
     92c:	28 f3       	brcs	.-54     	; 0x8f8 <EEPROM_write+0xa2>
     92e:	85 ea       	ldi	r24, 0xA5	; 165
     930:	90 e0       	ldi	r25, 0x00	; 0
     932:	0e 94 7d 1f 	call	0x3efa	; 0x3efa <uart_puts_p>
     936:	10 92 49 02 	sts	0x0249, r1
     93a:	10 92 48 02 	sts	0x0248, r1
     93e:	1f 91       	pop	r17
     940:	0f 91       	pop	r16
     942:	ff 90       	pop	r15
     944:	ef 90       	pop	r14
     946:	08 95       	ret

00000948 <__vector_21>:
     948:	1f 92       	push	r1
     94a:	0f 92       	push	r0
     94c:	0f b6       	in	r0, 0x3f	; 63
     94e:	0f 92       	push	r0
     950:	11 24       	eor	r1, r1
     952:	ef 92       	push	r14
     954:	ff 92       	push	r15
     956:	0f 93       	push	r16
     958:	1f 93       	push	r17
     95a:	2f 93       	push	r18
     95c:	3f 93       	push	r19
     95e:	4f 93       	push	r20
     960:	5f 93       	push	r21
     962:	6f 93       	push	r22
     964:	7f 93       	push	r23
     966:	8f 93       	push	r24
     968:	9f 93       	push	r25
     96a:	af 93       	push	r26
     96c:	bf 93       	push	r27
     96e:	ef 93       	push	r30
     970:	ff 93       	push	r31
     972:	40 91 42 02 	lds	r20, 0x0242
     976:	50 91 43 02 	lds	r21, 0x0243
     97a:	60 91 44 02 	lds	r22, 0x0244
     97e:	70 91 45 02 	lds	r23, 0x0245
     982:	20 91 78 00 	lds	r18, 0x0078
     986:	30 91 79 00 	lds	r19, 0x0079
     98a:	80 91 78 00 	lds	r24, 0x0078
     98e:	90 91 79 00 	lds	r25, 0x0079
     992:	80 50       	subi	r24, 0x00	; 0
     994:	92 40       	sbci	r25, 0x02	; 2
     996:	20 50       	subi	r18, 0x00	; 0
     998:	32 40       	sbci	r19, 0x02	; 2
     99a:	fc 01       	movw	r30, r24
     99c:	e2 9f       	mul	r30, r18
     99e:	c0 01       	movw	r24, r0
     9a0:	e3 9f       	mul	r30, r19
     9a2:	90 0d       	add	r25, r0
     9a4:	f2 9f       	mul	r31, r18
     9a6:	90 0d       	add	r25, r0
     9a8:	11 24       	eor	r1, r1
     9aa:	a0 e0       	ldi	r26, 0x00	; 0
     9ac:	b0 e0       	ldi	r27, 0x00	; 0
     9ae:	84 0f       	add	r24, r20
     9b0:	95 1f       	adc	r25, r21
     9b2:	a6 1f       	adc	r26, r22
     9b4:	b7 1f       	adc	r27, r23
     9b6:	80 93 42 02 	sts	0x0242, r24
     9ba:	90 93 43 02 	sts	0x0243, r25
     9be:	a0 93 44 02 	sts	0x0244, r26
     9c2:	b0 93 45 02 	sts	0x0245, r27
     9c6:	80 91 46 02 	lds	r24, 0x0246
     9ca:	90 91 47 02 	lds	r25, 0x0247
     9ce:	01 96       	adiw	r24, 0x01	; 1
     9d0:	90 93 47 02 	sts	0x0247, r25
     9d4:	80 93 46 02 	sts	0x0246, r24
     9d8:	60 91 46 02 	lds	r22, 0x0246
     9dc:	70 91 47 02 	lds	r23, 0x0247
     9e0:	e0 90 1d 01 	lds	r14, 0x011D
     9e4:	f0 90 1e 01 	lds	r15, 0x011E
     9e8:	00 91 1f 01 	lds	r16, 0x011F
     9ec:	10 91 20 01 	lds	r17, 0x0120
     9f0:	88 27       	eor	r24, r24
     9f2:	77 fd       	sbrc	r23, 7
     9f4:	80 95       	com	r24
     9f6:	98 2f       	mov	r25, r24
     9f8:	0e 94 77 21 	call	0x42ee	; 0x42ee <__floatsisf>
     9fc:	a8 01       	movw	r20, r16
     9fe:	97 01       	movw	r18, r14
     a00:	0e 94 47 21 	call	0x428e	; 0x428e <__eqsf2>
     a04:	88 23       	and	r24, r24
     a06:	09 f0       	breq	.+2      	; 0xa0a <__vector_21+0xc2>
     a08:	66 c0       	rjmp	.+204    	; 0xad6 <__vector_21+0x18e>
     a0a:	60 91 42 02 	lds	r22, 0x0242
     a0e:	70 91 43 02 	lds	r23, 0x0243
     a12:	80 91 44 02 	lds	r24, 0x0244
     a16:	90 91 45 02 	lds	r25, 0x0245
     a1a:	e0 90 1d 01 	lds	r14, 0x011D
     a1e:	f0 90 1e 01 	lds	r15, 0x011E
     a22:	00 91 1f 01 	lds	r16, 0x011F
     a26:	10 91 20 01 	lds	r17, 0x0120
     a2a:	0e 94 29 22 	call	0x4452	; 0x4452 <__floatunsisf>
     a2e:	a8 01       	movw	r20, r16
     a30:	97 01       	movw	r18, r14
     a32:	0e 94 9b 20 	call	0x4136	; 0x4136 <__divsf3>
     a36:	60 93 3a 05 	sts	0x053A, r22
     a3a:	70 93 3b 05 	sts	0x053B, r23
     a3e:	80 93 3c 05 	sts	0x053C, r24
     a42:	90 93 3d 05 	sts	0x053D, r25
     a46:	60 91 3a 05 	lds	r22, 0x053A
     a4a:	70 91 3b 05 	lds	r23, 0x053B
     a4e:	80 91 3c 05 	lds	r24, 0x053C
     a52:	90 91 3d 05 	lds	r25, 0x053D
     a56:	0e 94 aa 25 	call	0x4b54	; 0x4b54 <sqrt>
     a5a:	60 93 3a 05 	sts	0x053A, r22
     a5e:	70 93 3b 05 	sts	0x053B, r23
     a62:	80 93 3c 05 	sts	0x053C, r24
     a66:	90 93 3d 05 	sts	0x053D, r25
     a6a:	60 91 3a 05 	lds	r22, 0x053A
     a6e:	70 91 3b 05 	lds	r23, 0x053B
     a72:	80 91 3c 05 	lds	r24, 0x053C
     a76:	90 91 3d 05 	lds	r25, 0x053D
     a7a:	2b eb       	ldi	r18, 0xBB	; 187
     a7c:	35 ef       	ldi	r19, 0xF5	; 245
     a7e:	44 e2       	ldi	r20, 0x24	; 36
     a80:	55 e4       	ldi	r21, 0x45	; 69
     a82:	0e 94 a1 1f 	call	0x3f42	; 0x3f42 <__mulsf3>
     a86:	60 93 1e 05 	sts	0x051E, r22
     a8a:	70 93 1f 05 	sts	0x051F, r23
     a8e:	80 93 20 05 	sts	0x0520, r24
     a92:	90 93 21 05 	sts	0x0521, r25
     a96:	60 91 1e 05 	lds	r22, 0x051E
     a9a:	70 91 1f 05 	lds	r23, 0x051F
     a9e:	80 91 20 05 	lds	r24, 0x0520
     aa2:	90 91 21 05 	lds	r25, 0x0521
     aa6:	20 e0       	ldi	r18, 0x00	; 0
     aa8:	30 e0       	ldi	r19, 0x00	; 0
     aaa:	48 ec       	ldi	r20, 0xC8	; 200
     aac:	52 e4       	ldi	r21, 0x42	; 66
     aae:	0e 94 9b 20 	call	0x4136	; 0x4136 <__divsf3>
     ab2:	0e 94 d5 21 	call	0x43aa	; 0x43aa <__fixsfsi>
     ab6:	dc 01       	movw	r26, r24
     ab8:	cb 01       	movw	r24, r22
     aba:	0e 94 2b 04 	call	0x856	; 0x856 <EEPROM_write>
     abe:	10 92 47 02 	sts	0x0247, r1
     ac2:	10 92 46 02 	sts	0x0246, r1
     ac6:	10 92 42 02 	sts	0x0242, r1
     aca:	10 92 43 02 	sts	0x0243, r1
     ace:	10 92 44 02 	sts	0x0244, r1
     ad2:	10 92 45 02 	sts	0x0245, r1
     ad6:	ff 91       	pop	r31
     ad8:	ef 91       	pop	r30
     ada:	bf 91       	pop	r27
     adc:	af 91       	pop	r26
     ade:	9f 91       	pop	r25
     ae0:	8f 91       	pop	r24
     ae2:	7f 91       	pop	r23
     ae4:	6f 91       	pop	r22
     ae6:	5f 91       	pop	r21
     ae8:	4f 91       	pop	r20
     aea:	3f 91       	pop	r19
     aec:	2f 91       	pop	r18
     aee:	1f 91       	pop	r17
     af0:	0f 91       	pop	r16
     af2:	ff 90       	pop	r15
     af4:	ef 90       	pop	r14
     af6:	0f 90       	pop	r0
     af8:	0f be       	out	0x3f, r0	; 63
     afa:	0f 90       	pop	r0
     afc:	1f 90       	pop	r1
     afe:	18 95       	reti

00000b00 <fat_close>:
     b00:	fc 01       	movw	r30, r24
     b02:	00 97       	sbiw	r24, 0x00	; 0
     b04:	11 f0       	breq	.+4      	; 0xb0a <fat_close+0xa>
     b06:	11 82       	std	Z+1, r1	; 0x01
     b08:	10 82       	st	Z, r1
     b0a:	08 95       	ret

00000b0c <fat_get_next_cluster>:
     b0c:	df 93       	push	r29
     b0e:	cf 93       	push	r28
     b10:	00 d0       	rcall	.+0      	; 0xb12 <fat_get_next_cluster+0x6>
     b12:	cd b7       	in	r28, 0x3d	; 61
     b14:	de b7       	in	r29, 0x3e	; 62
     b16:	dc 01       	movw	r26, r24
     b18:	00 97       	sbiw	r24, 0x00	; 0
     b1a:	81 f1       	breq	.+96     	; 0xb7c <fat_get_next_cluster+0x70>
     b1c:	62 30       	cpi	r22, 0x02	; 2
     b1e:	71 05       	cpc	r23, r1
     b20:	68 f1       	brcs	.+90     	; 0xb7c <fat_get_next_cluster+0x70>
     b22:	ed 91       	ld	r30, X+
     b24:	fc 91       	ld	r31, X
     b26:	11 97       	sbiw	r26, 0x01	; 1
     b28:	66 0f       	add	r22, r22
     b2a:	77 1f       	adc	r23, r23
     b2c:	80 e0       	ldi	r24, 0x00	; 0
     b2e:	90 e0       	ldi	r25, 0x00	; 0
     b30:	16 96       	adiw	r26, 0x06	; 6
     b32:	2d 91       	ld	r18, X+
     b34:	3d 91       	ld	r19, X+
     b36:	4d 91       	ld	r20, X+
     b38:	5c 91       	ld	r21, X
     b3a:	19 97       	sbiw	r26, 0x09	; 9
     b3c:	62 0f       	add	r22, r18
     b3e:	73 1f       	adc	r23, r19
     b40:	84 1f       	adc	r24, r20
     b42:	95 1f       	adc	r25, r21
     b44:	01 90       	ld	r0, Z+
     b46:	f0 81       	ld	r31, Z
     b48:	e0 2d       	mov	r30, r0
     b4a:	ae 01       	movw	r20, r28
     b4c:	4f 5f       	subi	r20, 0xFF	; 255
     b4e:	5f 4f       	sbci	r21, 0xFF	; 255
     b50:	22 e0       	ldi	r18, 0x02	; 2
     b52:	30 e0       	ldi	r19, 0x00	; 0
     b54:	09 95       	icall
     b56:	88 23       	and	r24, r24
     b58:	89 f0       	breq	.+34     	; 0xb7c <fat_get_next_cluster+0x70>
     b5a:	29 81       	ldd	r18, Y+1	; 0x01
     b5c:	3a 81       	ldd	r19, Y+2	; 0x02
     b5e:	21 15       	cp	r18, r1
     b60:	31 05       	cpc	r19, r1
     b62:	71 f0       	breq	.+28     	; 0xb80 <fat_get_next_cluster+0x74>
     b64:	8f ef       	ldi	r24, 0xFF	; 255
     b66:	27 3f       	cpi	r18, 0xF7	; 247
     b68:	38 07       	cpc	r19, r24
     b6a:	41 f0       	breq	.+16     	; 0xb7c <fat_get_next_cluster+0x70>
     b6c:	c9 01       	movw	r24, r18
     b6e:	40 96       	adiw	r24, 0x10	; 16
     b70:	07 97       	sbiw	r24, 0x07	; 7
     b72:	20 f0       	brcs	.+8      	; 0xb7c <fat_get_next_cluster+0x70>
     b74:	8f ef       	ldi	r24, 0xFF	; 255
     b76:	28 3f       	cpi	r18, 0xF8	; 248
     b78:	38 07       	cpc	r19, r24
     b7a:	10 f0       	brcs	.+4      	; 0xb80 <fat_get_next_cluster+0x74>
     b7c:	20 e0       	ldi	r18, 0x00	; 0
     b7e:	30 e0       	ldi	r19, 0x00	; 0
     b80:	c9 01       	movw	r24, r18
     b82:	0f 90       	pop	r0
     b84:	0f 90       	pop	r0
     b86:	cf 91       	pop	r28
     b88:	df 91       	pop	r29
     b8a:	08 95       	ret

00000b8c <fat_free_clusters>:
     b8c:	4f 92       	push	r4
     b8e:	5f 92       	push	r5
     b90:	6f 92       	push	r6
     b92:	7f 92       	push	r7
     b94:	8f 92       	push	r8
     b96:	9f 92       	push	r9
     b98:	af 92       	push	r10
     b9a:	bf 92       	push	r11
     b9c:	cf 92       	push	r12
     b9e:	df 92       	push	r13
     ba0:	ef 92       	push	r14
     ba2:	ff 92       	push	r15
     ba4:	0f 93       	push	r16
     ba6:	1f 93       	push	r17
     ba8:	df 93       	push	r29
     baa:	cf 93       	push	r28
     bac:	00 d0       	rcall	.+0      	; 0xbae <fat_free_clusters+0x22>
     bae:	cd b7       	in	r28, 0x3d	; 61
     bb0:	de b7       	in	r29, 0x3e	; 62
     bb2:	5c 01       	movw	r10, r24
     bb4:	00 97       	sbiw	r24, 0x00	; 0
     bb6:	09 f4       	brne	.+2      	; 0xbba <fat_free_clusters+0x2e>
     bb8:	49 c0       	rjmp	.+146    	; 0xc4c <fat_free_clusters+0xc0>
     bba:	62 30       	cpi	r22, 0x02	; 2
     bbc:	71 05       	cpc	r23, r1
     bbe:	08 f4       	brcc	.+2      	; 0xbc2 <fat_free_clusters+0x36>
     bc0:	45 c0       	rjmp	.+138    	; 0xc4c <fat_free_clusters+0xc0>
     bc2:	dc 01       	movw	r26, r24
     bc4:	16 96       	adiw	r26, 0x06	; 6
     bc6:	6d 90       	ld	r6, X+
     bc8:	7d 90       	ld	r7, X+
     bca:	8d 90       	ld	r8, X+
     bcc:	9c 90       	ld	r9, X
     bce:	19 97       	sbiw	r26, 0x09	; 9
     bd0:	2e 01       	movw	r4, r28
     bd2:	08 94       	sec
     bd4:	41 1c       	adc	r4, r1
     bd6:	51 1c       	adc	r5, r1
     bd8:	66 0f       	add	r22, r22
     bda:	77 1f       	adc	r23, r23
     bdc:	7b 01       	movw	r14, r22
     bde:	00 e0       	ldi	r16, 0x00	; 0
     be0:	10 e0       	ldi	r17, 0x00	; 0
     be2:	e6 0c       	add	r14, r6
     be4:	f7 1c       	adc	r15, r7
     be6:	08 1d       	adc	r16, r8
     be8:	19 1d       	adc	r17, r9
     bea:	d5 01       	movw	r26, r10
     bec:	ed 91       	ld	r30, X+
     bee:	fc 91       	ld	r31, X
     bf0:	01 90       	ld	r0, Z+
     bf2:	f0 81       	ld	r31, Z
     bf4:	e0 2d       	mov	r30, r0
     bf6:	c8 01       	movw	r24, r16
     bf8:	b7 01       	movw	r22, r14
     bfa:	a2 01       	movw	r20, r4
     bfc:	22 e0       	ldi	r18, 0x02	; 2
     bfe:	30 e0       	ldi	r19, 0x00	; 0
     c00:	09 95       	icall
     c02:	88 23       	and	r24, r24
     c04:	19 f1       	breq	.+70     	; 0xc4c <fat_free_clusters+0xc0>
     c06:	c9 80       	ldd	r12, Y+1	; 0x01
     c08:	da 80       	ldd	r13, Y+2	; 0x02
     c0a:	c1 14       	cp	r12, r1
     c0c:	d1 04       	cpc	r13, r1
     c0e:	01 f1       	breq	.+64     	; 0xc50 <fat_free_clusters+0xc4>
     c10:	c6 01       	movw	r24, r12
     c12:	40 96       	adiw	r24, 0x10	; 16
     c14:	08 97       	sbiw	r24, 0x08	; 8
     c16:	d0 f0       	brcs	.+52     	; 0xc4c <fat_free_clusters+0xc0>
     c18:	b8 ef       	ldi	r27, 0xF8	; 248
     c1a:	cb 16       	cp	r12, r27
     c1c:	bf ef       	ldi	r27, 0xFF	; 255
     c1e:	db 06       	cpc	r13, r27
     c20:	10 f0       	brcs	.+4      	; 0xc26 <fat_free_clusters+0x9a>
     c22:	cc 24       	eor	r12, r12
     c24:	dd 24       	eor	r13, r13
     c26:	1a 82       	std	Y+2, r1	; 0x02
     c28:	19 82       	std	Y+1, r1	; 0x01
     c2a:	d5 01       	movw	r26, r10
     c2c:	ed 91       	ld	r30, X+
     c2e:	fc 91       	ld	r31, X
     c30:	04 80       	ldd	r0, Z+4	; 0x04
     c32:	f5 81       	ldd	r31, Z+5	; 0x05
     c34:	e0 2d       	mov	r30, r0
     c36:	c8 01       	movw	r24, r16
     c38:	b7 01       	movw	r22, r14
     c3a:	a2 01       	movw	r20, r4
     c3c:	22 e0       	ldi	r18, 0x02	; 2
     c3e:	30 e0       	ldi	r19, 0x00	; 0
     c40:	09 95       	icall
     c42:	b6 01       	movw	r22, r12
     c44:	c1 14       	cp	r12, r1
     c46:	d1 04       	cpc	r13, r1
     c48:	39 f6       	brne	.-114    	; 0xbd8 <fat_free_clusters+0x4c>
     c4a:	02 c0       	rjmp	.+4      	; 0xc50 <fat_free_clusters+0xc4>
     c4c:	80 e0       	ldi	r24, 0x00	; 0
     c4e:	01 c0       	rjmp	.+2      	; 0xc52 <fat_free_clusters+0xc6>
     c50:	81 e0       	ldi	r24, 0x01	; 1
     c52:	0f 90       	pop	r0
     c54:	0f 90       	pop	r0
     c56:	cf 91       	pop	r28
     c58:	df 91       	pop	r29
     c5a:	1f 91       	pop	r17
     c5c:	0f 91       	pop	r16
     c5e:	ff 90       	pop	r15
     c60:	ef 90       	pop	r14
     c62:	df 90       	pop	r13
     c64:	cf 90       	pop	r12
     c66:	bf 90       	pop	r11
     c68:	af 90       	pop	r10
     c6a:	9f 90       	pop	r9
     c6c:	8f 90       	pop	r8
     c6e:	7f 90       	pop	r7
     c70:	6f 90       	pop	r6
     c72:	5f 90       	pop	r5
     c74:	4f 90       	pop	r4
     c76:	08 95       	ret

00000c78 <fat_append_clusters>:
     c78:	2f 92       	push	r2
     c7a:	3f 92       	push	r3
     c7c:	4f 92       	push	r4
     c7e:	5f 92       	push	r5
     c80:	6f 92       	push	r6
     c82:	7f 92       	push	r7
     c84:	8f 92       	push	r8
     c86:	9f 92       	push	r9
     c88:	af 92       	push	r10
     c8a:	bf 92       	push	r11
     c8c:	cf 92       	push	r12
     c8e:	df 92       	push	r13
     c90:	ef 92       	push	r14
     c92:	ff 92       	push	r15
     c94:	0f 93       	push	r16
     c96:	1f 93       	push	r17
     c98:	df 93       	push	r29
     c9a:	cf 93       	push	r28
     c9c:	cd b7       	in	r28, 0x3d	; 61
     c9e:	de b7       	in	r29, 0x3e	; 62
     ca0:	2c 97       	sbiw	r28, 0x0c	; 12
     ca2:	0f b6       	in	r0, 0x3f	; 63
     ca4:	f8 94       	cli
     ca6:	de bf       	out	0x3e, r29	; 62
     ca8:	0f be       	out	0x3f, r0	; 63
     caa:	cd bf       	out	0x3d, r28	; 61
     cac:	4c 01       	movw	r8, r24
     cae:	1b 01       	movw	r2, r22
     cb0:	ca 01       	movw	r24, r20
     cb2:	81 14       	cp	r8, r1
     cb4:	91 04       	cpc	r9, r1
     cb6:	09 f4       	brne	.+2      	; 0xcba <fat_append_clusters+0x42>
     cb8:	ab c0       	rjmp	.+342    	; 0xe10 <fat_append_clusters+0x198>
     cba:	d4 01       	movw	r26, r8
     cbc:	ed 91       	ld	r30, X+
     cbe:	fc 91       	ld	r31, X
     cc0:	11 97       	sbiw	r26, 0x01	; 1
     cc2:	20 81       	ld	r18, Z
     cc4:	31 81       	ldd	r19, Z+1	; 0x01
     cc6:	3c 87       	std	Y+12, r19	; 0x0c
     cc8:	2b 87       	std	Y+11, r18	; 0x0b
     cca:	44 81       	ldd	r20, Z+4	; 0x04
     ccc:	55 81       	ldd	r21, Z+5	; 0x05
     cce:	5a 87       	std	Y+10, r21	; 0x0a
     cd0:	49 87       	std	Y+9, r20	; 0x09
     cd2:	16 96       	adiw	r26, 0x06	; 6
     cd4:	2d 91       	ld	r18, X+
     cd6:	3d 91       	ld	r19, X+
     cd8:	4d 91       	ld	r20, X+
     cda:	5c 91       	ld	r21, X
     cdc:	19 97       	sbiw	r26, 0x09	; 9
     cde:	2d 83       	std	Y+5, r18	; 0x05
     ce0:	3e 83       	std	Y+6, r19	; 0x06
     ce2:	4f 83       	std	Y+7, r20	; 0x07
     ce4:	58 87       	std	Y+8, r21	; 0x08
     ce6:	5a 96       	adiw	r26, 0x1a	; 26
     ce8:	ad 90       	ld	r10, X+
     cea:	bc 90       	ld	r11, X
     cec:	5b 97       	sbiw	r26, 0x1b	; 27
     cee:	1a 96       	adiw	r26, 0x0a	; 10
     cf0:	2d 91       	ld	r18, X+
     cf2:	3d 91       	ld	r19, X+
     cf4:	4d 91       	ld	r20, X+
     cf6:	5c 91       	ld	r21, X
     cf8:	1d 97       	sbiw	r26, 0x0d	; 13
     cfa:	56 95       	lsr	r21
     cfc:	47 95       	ror	r20
     cfe:	37 95       	ror	r19
     d00:	27 95       	ror	r18
     d02:	3c 83       	std	Y+4, r19	; 0x04
     d04:	2b 83       	std	Y+3, r18	; 0x03
     d06:	5b 96       	adiw	r26, 0x1b	; 27
     d08:	1c 92       	st	X, r1
     d0a:	1e 92       	st	-X, r1
     d0c:	5a 97       	sbiw	r26, 0x1a	; 26
     d0e:	3c 01       	movw	r6, r24
     d10:	29 01       	movw	r4, r18
     d12:	cc 24       	eor	r12, r12
     d14:	dd 24       	eor	r13, r13
     d16:	54 c0       	rjmp	.+168    	; 0xdc0 <fat_append_clusters+0x148>
     d18:	b2 e0       	ldi	r27, 0x02	; 2
     d1a:	ab 16       	cp	r10, r27
     d1c:	b1 04       	cpc	r11, r1
     d1e:	28 f0       	brcs	.+10     	; 0xd2a <fat_append_clusters+0xb2>
     d20:	eb 81       	ldd	r30, Y+3	; 0x03
     d22:	fc 81       	ldd	r31, Y+4	; 0x04
     d24:	ae 16       	cp	r10, r30
     d26:	bf 06       	cpc	r11, r31
     d28:	18 f0       	brcs	.+6      	; 0xd30 <fat_append_clusters+0xb8>
     d2a:	42 e0       	ldi	r20, 0x02	; 2
     d2c:	a4 2e       	mov	r10, r20
     d2e:	b1 2c       	mov	r11, r1
     d30:	c5 01       	movw	r24, r10
     d32:	88 0f       	add	r24, r24
     d34:	99 1f       	adc	r25, r25
     d36:	7c 01       	movw	r14, r24
     d38:	00 e0       	ldi	r16, 0x00	; 0
     d3a:	10 e0       	ldi	r17, 0x00	; 0
     d3c:	2d 81       	ldd	r18, Y+5	; 0x05
     d3e:	3e 81       	ldd	r19, Y+6	; 0x06
     d40:	4f 81       	ldd	r20, Y+7	; 0x07
     d42:	58 85       	ldd	r21, Y+8	; 0x08
     d44:	e2 0e       	add	r14, r18
     d46:	f3 1e       	adc	r15, r19
     d48:	04 1f       	adc	r16, r20
     d4a:	15 1f       	adc	r17, r21
     d4c:	c8 01       	movw	r24, r16
     d4e:	b7 01       	movw	r22, r14
     d50:	ae 01       	movw	r20, r28
     d52:	4f 5f       	subi	r20, 0xFF	; 255
     d54:	5f 4f       	sbci	r21, 0xFF	; 255
     d56:	22 e0       	ldi	r18, 0x02	; 2
     d58:	30 e0       	ldi	r19, 0x00	; 0
     d5a:	ab 85       	ldd	r26, Y+11	; 0x0b
     d5c:	bc 85       	ldd	r27, Y+12	; 0x0c
     d5e:	fd 01       	movw	r30, r26
     d60:	09 95       	icall
     d62:	88 23       	and	r24, r24
     d64:	09 f4       	brne	.+2      	; 0xd68 <fat_append_clusters+0xf0>
     d66:	54 c0       	rjmp	.+168    	; 0xe10 <fat_append_clusters+0x198>
     d68:	89 81       	ldd	r24, Y+1	; 0x01
     d6a:	9a 81       	ldd	r25, Y+2	; 0x02
     d6c:	89 2b       	or	r24, r25
     d6e:	11 f5       	brne	.+68     	; 0xdb4 <fat_append_clusters+0x13c>
     d70:	61 14       	cp	r6, r1
     d72:	71 04       	cpc	r7, r1
     d74:	21 f4       	brne	.+8      	; 0xd7e <fat_append_clusters+0x106>
     d76:	f4 01       	movw	r30, r8
     d78:	b3 8e       	std	Z+27, r11	; 0x1b
     d7a:	a2 8e       	std	Z+26, r10	; 0x1a
     d7c:	27 c0       	rjmp	.+78     	; 0xdcc <fat_append_clusters+0x154>
     d7e:	c1 14       	cp	r12, r1
     d80:	d1 04       	cpc	r13, r1
     d82:	29 f4       	brne	.+10     	; 0xd8e <fat_append_clusters+0x116>
     d84:	2f ef       	ldi	r18, 0xFF	; 255
     d86:	3f ef       	ldi	r19, 0xFF	; 255
     d88:	3a 83       	std	Y+2, r19	; 0x02
     d8a:	29 83       	std	Y+1, r18	; 0x01
     d8c:	02 c0       	rjmp	.+4      	; 0xd92 <fat_append_clusters+0x11a>
     d8e:	da 82       	std	Y+2, r13	; 0x02
     d90:	c9 82       	std	Y+1, r12	; 0x01
     d92:	c8 01       	movw	r24, r16
     d94:	b7 01       	movw	r22, r14
     d96:	ae 01       	movw	r20, r28
     d98:	4f 5f       	subi	r20, 0xFF	; 255
     d9a:	5f 4f       	sbci	r21, 0xFF	; 255
     d9c:	22 e0       	ldi	r18, 0x02	; 2
     d9e:	30 e0       	ldi	r19, 0x00	; 0
     da0:	a9 85       	ldd	r26, Y+9	; 0x09
     da2:	ba 85       	ldd	r27, Y+10	; 0x0a
     da4:	fd 01       	movw	r30, r26
     da6:	09 95       	icall
     da8:	88 23       	and	r24, r24
     daa:	71 f1       	breq	.+92     	; 0xe08 <fat_append_clusters+0x190>
     dac:	08 94       	sec
     dae:	61 08       	sbc	r6, r1
     db0:	71 08       	sbc	r7, r1
     db2:	65 01       	movw	r12, r10
     db4:	08 94       	sec
     db6:	41 08       	sbc	r4, r1
     db8:	51 08       	sbc	r5, r1
     dba:	08 94       	sec
     dbc:	a1 1c       	adc	r10, r1
     dbe:	b1 1c       	adc	r11, r1
     dc0:	41 14       	cp	r4, r1
     dc2:	51 04       	cpc	r5, r1
     dc4:	09 f0       	breq	.+2      	; 0xdc8 <fat_append_clusters+0x150>
     dc6:	a8 cf       	rjmp	.-176    	; 0xd18 <fat_append_clusters+0xa0>
     dc8:	67 28       	or	r6, r7
     dca:	f1 f4       	brne	.+60     	; 0xe08 <fat_append_clusters+0x190>
     dcc:	b2 e0       	ldi	r27, 0x02	; 2
     dce:	2b 16       	cp	r2, r27
     dd0:	31 04       	cpc	r3, r1
     dd2:	00 f1       	brcs	.+64     	; 0xe14 <fat_append_clusters+0x19c>
     dd4:	c9 82       	std	Y+1, r12	; 0x01
     dd6:	da 82       	std	Y+2, r13	; 0x02
     dd8:	22 0c       	add	r2, r2
     dda:	33 1c       	adc	r3, r3
     ddc:	b1 01       	movw	r22, r2
     dde:	80 e0       	ldi	r24, 0x00	; 0
     de0:	90 e0       	ldi	r25, 0x00	; 0
     de2:	2d 81       	ldd	r18, Y+5	; 0x05
     de4:	3e 81       	ldd	r19, Y+6	; 0x06
     de6:	4f 81       	ldd	r20, Y+7	; 0x07
     de8:	58 85       	ldd	r21, Y+8	; 0x08
     dea:	62 0f       	add	r22, r18
     dec:	73 1f       	adc	r23, r19
     dee:	84 1f       	adc	r24, r20
     df0:	95 1f       	adc	r25, r21
     df2:	ae 01       	movw	r20, r28
     df4:	4f 5f       	subi	r20, 0xFF	; 255
     df6:	5f 4f       	sbci	r21, 0xFF	; 255
     df8:	22 e0       	ldi	r18, 0x02	; 2
     dfa:	30 e0       	ldi	r19, 0x00	; 0
     dfc:	a9 85       	ldd	r26, Y+9	; 0x09
     dfe:	ba 85       	ldd	r27, Y+10	; 0x0a
     e00:	fd 01       	movw	r30, r26
     e02:	09 95       	icall
     e04:	88 23       	and	r24, r24
     e06:	31 f4       	brne	.+12     	; 0xe14 <fat_append_clusters+0x19c>
     e08:	c4 01       	movw	r24, r8
     e0a:	b6 01       	movw	r22, r12
     e0c:	0e 94 c6 05 	call	0xb8c	; 0xb8c <fat_free_clusters>
     e10:	cc 24       	eor	r12, r12
     e12:	dd 24       	eor	r13, r13
     e14:	c6 01       	movw	r24, r12
     e16:	2c 96       	adiw	r28, 0x0c	; 12
     e18:	0f b6       	in	r0, 0x3f	; 63
     e1a:	f8 94       	cli
     e1c:	de bf       	out	0x3e, r29	; 62
     e1e:	0f be       	out	0x3f, r0	; 63
     e20:	cd bf       	out	0x3d, r28	; 61
     e22:	cf 91       	pop	r28
     e24:	df 91       	pop	r29
     e26:	1f 91       	pop	r17
     e28:	0f 91       	pop	r16
     e2a:	ff 90       	pop	r15
     e2c:	ef 90       	pop	r14
     e2e:	df 90       	pop	r13
     e30:	cf 90       	pop	r12
     e32:	bf 90       	pop	r11
     e34:	af 90       	pop	r10
     e36:	9f 90       	pop	r9
     e38:	8f 90       	pop	r8
     e3a:	7f 90       	pop	r7
     e3c:	6f 90       	pop	r6
     e3e:	5f 90       	pop	r5
     e40:	4f 90       	pop	r4
     e42:	3f 90       	pop	r3
     e44:	2f 90       	pop	r2
     e46:	08 95       	ret

00000e48 <fat_clear_cluster_callback>:
     e48:	80 e1       	ldi	r24, 0x10	; 16
     e4a:	90 e0       	ldi	r25, 0x00	; 0
     e4c:	08 95       	ret

00000e4e <fat_close_file>:
     e4e:	fc 01       	movw	r30, r24
     e50:	00 97       	sbiw	r24, 0x00	; 0
     e52:	11 f0       	breq	.+4      	; 0xe58 <fat_close_file+0xa>
     e54:	11 82       	std	Z+1, r1	; 0x01
     e56:	10 82       	st	Z, r1
     e58:	08 95       	ret

00000e5a <fat_read_file>:
     e5a:	2f 92       	push	r2
     e5c:	3f 92       	push	r3
     e5e:	4f 92       	push	r4
     e60:	5f 92       	push	r5
     e62:	6f 92       	push	r6
     e64:	7f 92       	push	r7
     e66:	8f 92       	push	r8
     e68:	9f 92       	push	r9
     e6a:	af 92       	push	r10
     e6c:	bf 92       	push	r11
     e6e:	cf 92       	push	r12
     e70:	df 92       	push	r13
     e72:	ef 92       	push	r14
     e74:	ff 92       	push	r15
     e76:	0f 93       	push	r16
     e78:	1f 93       	push	r17
     e7a:	df 93       	push	r29
     e7c:	cf 93       	push	r28
     e7e:	cd b7       	in	r28, 0x3d	; 61
     e80:	de b7       	in	r29, 0x3e	; 62
     e82:	2a 97       	sbiw	r28, 0x0a	; 10
     e84:	0f b6       	in	r0, 0x3f	; 63
     e86:	f8 94       	cli
     e88:	de bf       	out	0x3e, r29	; 62
     e8a:	0f be       	out	0x3f, r0	; 63
     e8c:	cd bf       	out	0x3d, r28	; 61
     e8e:	2c 01       	movw	r4, r24
     e90:	7a 83       	std	Y+2, r23	; 0x02
     e92:	69 83       	std	Y+1, r22	; 0x01
     e94:	5c 83       	std	Y+4, r21	; 0x04
     e96:	4b 83       	std	Y+3, r20	; 0x03
     e98:	00 97       	sbiw	r24, 0x00	; 0
     e9a:	09 f4       	brne	.+2      	; 0xe9e <fat_read_file+0x44>
     e9c:	09 c1       	rjmp	.+530    	; 0x10b0 <fat_read_file+0x256>
     e9e:	67 2b       	or	r22, r23
     ea0:	09 f4       	brne	.+2      	; 0xea4 <fat_read_file+0x4a>
     ea2:	06 c1       	rjmp	.+524    	; 0x10b0 <fat_read_file+0x256>
     ea4:	45 2b       	or	r20, r21
     ea6:	09 f4       	brne	.+2      	; 0xeaa <fat_read_file+0x50>
     ea8:	03 c1       	rjmp	.+518    	; 0x10b0 <fat_read_file+0x256>
     eaa:	dc 01       	movw	r26, r24
     eac:	9d 96       	adiw	r26, 0x2d	; 45
     eae:	ad 90       	ld	r10, X+
     eb0:	bd 90       	ld	r11, X+
     eb2:	cd 90       	ld	r12, X+
     eb4:	dc 90       	ld	r13, X
     eb6:	d0 97       	sbiw	r26, 0x30	; 48
     eb8:	95 96       	adiw	r26, 0x25	; 37
     eba:	2d 91       	ld	r18, X+
     ebc:	3d 91       	ld	r19, X+
     ebe:	4d 91       	ld	r20, X+
     ec0:	5c 91       	ld	r21, X
     ec2:	98 97       	sbiw	r26, 0x28	; 40
     ec4:	eb 81       	ldd	r30, Y+3	; 0x03
     ec6:	fc 81       	ldd	r31, Y+4	; 0x04
     ec8:	cf 01       	movw	r24, r30
     eca:	a0 e0       	ldi	r26, 0x00	; 0
     ecc:	b0 e0       	ldi	r27, 0x00	; 0
     ece:	8a 0d       	add	r24, r10
     ed0:	9b 1d       	adc	r25, r11
     ed2:	ac 1d       	adc	r26, r12
     ed4:	bd 1d       	adc	r27, r13
     ed6:	28 17       	cp	r18, r24
     ed8:	39 07       	cpc	r19, r25
     eda:	4a 07       	cpc	r20, r26
     edc:	5b 07       	cpc	r21, r27
     ede:	40 f4       	brcc	.+16     	; 0xef0 <fat_read_file+0x96>
     ee0:	b9 01       	movw	r22, r18
     ee2:	6a 19       	sub	r22, r10
     ee4:	7b 09       	sbc	r23, r11
     ee6:	7c 83       	std	Y+4, r23	; 0x04
     ee8:	6b 83       	std	Y+3, r22	; 0x03
     eea:	67 2b       	or	r22, r23
     eec:	09 f4       	brne	.+2      	; 0xef0 <fat_read_file+0x96>
     eee:	e3 c0       	rjmp	.+454    	; 0x10b6 <fat_read_file+0x25c>
     ef0:	d2 01       	movw	r26, r4
     ef2:	ed 91       	ld	r30, X+
     ef4:	fc 91       	ld	r31, X
     ef6:	11 97       	sbiw	r26, 0x01	; 1
     ef8:	20 88       	ldd	r2, Z+16	; 0x10
     efa:	31 88       	ldd	r3, Z+17	; 0x11
     efc:	d1 96       	adiw	r26, 0x31	; 49
     efe:	ed 91       	ld	r30, X+
     f00:	fc 91       	ld	r31, X
     f02:	d2 97       	sbiw	r26, 0x32	; 50
     f04:	fa 87       	std	Y+10, r31	; 0x0a
     f06:	e9 87       	std	Y+9, r30	; 0x09
     f08:	ef 2b       	or	r30, r31
     f0a:	f1 f5       	brne	.+124    	; 0xf88 <fat_read_file+0x12e>
     f0c:	93 96       	adiw	r26, 0x23	; 35
     f0e:	2d 91       	ld	r18, X+
     f10:	3c 91       	ld	r19, X
     f12:	94 97       	sbiw	r26, 0x24	; 36
     f14:	3a 87       	std	Y+10, r19	; 0x0a
     f16:	29 87       	std	Y+9, r18	; 0x09
     f18:	23 2b       	or	r18, r19
     f1a:	39 f4       	brne	.+14     	; 0xf2a <fat_read_file+0xd0>
     f1c:	a1 14       	cp	r10, r1
     f1e:	b1 04       	cpc	r11, r1
     f20:	c1 04       	cpc	r12, r1
     f22:	d1 04       	cpc	r13, r1
     f24:	09 f4       	brne	.+2      	; 0xf28 <fat_read_file+0xce>
     f26:	c7 c0       	rjmp	.+398    	; 0x10b6 <fat_read_file+0x25c>
     f28:	c3 c0       	rjmp	.+390    	; 0x10b0 <fat_read_file+0x256>
     f2a:	a1 14       	cp	r10, r1
     f2c:	b1 04       	cpc	r11, r1
     f2e:	c1 04       	cpc	r12, r1
     f30:	d1 04       	cpc	r13, r1
     f32:	51 f1       	breq	.+84     	; 0xf88 <fat_read_file+0x12e>
     f34:	86 01       	movw	r16, r12
     f36:	75 01       	movw	r14, r10
     f38:	31 01       	movw	r6, r2
     f3a:	88 24       	eor	r8, r8
     f3c:	99 24       	eor	r9, r9
     f3e:	66 27       	eor	r22, r22
     f40:	77 27       	eor	r23, r23
     f42:	cb 01       	movw	r24, r22
     f44:	66 19       	sub	r22, r6
     f46:	77 09       	sbc	r23, r7
     f48:	88 09       	sbc	r24, r8
     f4a:	99 09       	sbc	r25, r9
     f4c:	6d 83       	std	Y+5, r22	; 0x05
     f4e:	7e 83       	std	Y+6, r23	; 0x06
     f50:	8f 83       	std	Y+7, r24	; 0x07
     f52:	98 87       	std	Y+8, r25	; 0x08
     f54:	14 c0       	rjmp	.+40     	; 0xf7e <fat_read_file+0x124>
     f56:	d2 01       	movw	r26, r4
     f58:	8d 91       	ld	r24, X+
     f5a:	9c 91       	ld	r25, X
     f5c:	69 85       	ldd	r22, Y+9	; 0x09
     f5e:	7a 85       	ldd	r23, Y+10	; 0x0a
     f60:	0e 94 86 05 	call	0xb0c	; 0xb0c <fat_get_next_cluster>
     f64:	9a 87       	std	Y+10, r25	; 0x0a
     f66:	89 87       	std	Y+9, r24	; 0x09
     f68:	89 2b       	or	r24, r25
     f6a:	09 f4       	brne	.+2      	; 0xf6e <fat_read_file+0x114>
     f6c:	a1 c0       	rjmp	.+322    	; 0x10b0 <fat_read_file+0x256>
     f6e:	6d 81       	ldd	r22, Y+5	; 0x05
     f70:	7e 81       	ldd	r23, Y+6	; 0x06
     f72:	8f 81       	ldd	r24, Y+7	; 0x07
     f74:	98 85       	ldd	r25, Y+8	; 0x08
     f76:	e6 0e       	add	r14, r22
     f78:	f7 1e       	adc	r15, r23
     f7a:	08 1f       	adc	r16, r24
     f7c:	19 1f       	adc	r17, r25
     f7e:	e6 14       	cp	r14, r6
     f80:	f7 04       	cpc	r15, r7
     f82:	08 05       	cpc	r16, r8
     f84:	19 05       	cpc	r17, r9
     f86:	38 f7       	brcc	.-50     	; 0xf56 <fat_read_file+0xfc>
     f88:	08 94       	sec
     f8a:	21 08       	sbc	r2, r1
     f8c:	31 08       	sbc	r3, r1
     f8e:	a2 20       	and	r10, r2
     f90:	b3 20       	and	r11, r3
     f92:	08 94       	sec
     f94:	21 1c       	adc	r2, r1
     f96:	31 1c       	adc	r3, r1
     f98:	cb 80       	ldd	r12, Y+3	; 0x03
     f9a:	dc 80       	ldd	r13, Y+4	; 0x04
     f9c:	d2 01       	movw	r26, r4
     f9e:	ed 90       	ld	r14, X+
     fa0:	fc 90       	ld	r15, X
     fa2:	e1 14       	cp	r14, r1
     fa4:	f1 04       	cpc	r15, r1
     fa6:	09 f1       	breq	.+66     	; 0xfea <fat_read_file+0x190>
     fa8:	e9 85       	ldd	r30, Y+9	; 0x09
     faa:	fa 85       	ldd	r31, Y+10	; 0x0a
     fac:	e2 30       	cpi	r30, 0x02	; 2
     fae:	f1 05       	cpc	r31, r1
     fb0:	e0 f0       	brcs	.+56     	; 0xfea <fat_read_file+0x190>
     fb2:	32 97       	sbiw	r30, 0x02	; 2
     fb4:	bf 01       	movw	r22, r30
     fb6:	80 e0       	ldi	r24, 0x00	; 0
     fb8:	90 e0       	ldi	r25, 0x00	; 0
     fba:	32 96       	adiw	r30, 0x02	; 2
     fbc:	fa 87       	std	Y+10, r31	; 0x0a
     fbe:	e9 87       	std	Y+9, r30	; 0x09
     fc0:	d7 01       	movw	r26, r14
     fc2:	50 96       	adiw	r26, 0x10	; 16
     fc4:	2d 91       	ld	r18, X+
     fc6:	3c 91       	ld	r19, X
     fc8:	51 97       	sbiw	r26, 0x11	; 17
     fca:	40 e0       	ldi	r20, 0x00	; 0
     fcc:	50 e0       	ldi	r21, 0x00	; 0
     fce:	0e 94 97 24 	call	0x492e	; 0x492e <__mulsi3>
     fd2:	9b 01       	movw	r18, r22
     fd4:	ac 01       	movw	r20, r24
     fd6:	f7 01       	movw	r30, r14
     fd8:	82 89       	ldd	r24, Z+18	; 0x12
     fda:	93 89       	ldd	r25, Z+19	; 0x13
     fdc:	a4 89       	ldd	r26, Z+20	; 0x14
     fde:	b5 89       	ldd	r27, Z+21	; 0x15
     fe0:	28 0f       	add	r18, r24
     fe2:	39 1f       	adc	r19, r25
     fe4:	4a 1f       	adc	r20, r26
     fe6:	5b 1f       	adc	r21, r27
     fe8:	04 c0       	rjmp	.+8      	; 0xff2 <fat_read_file+0x198>
     fea:	20 e0       	ldi	r18, 0x00	; 0
     fec:	30 e0       	ldi	r19, 0x00	; 0
     fee:	40 e0       	ldi	r20, 0x00	; 0
     ff0:	50 e0       	ldi	r21, 0x00	; 0
     ff2:	81 01       	movw	r16, r2
     ff4:	0a 19       	sub	r16, r10
     ff6:	1b 09       	sbc	r17, r11
     ff8:	c0 16       	cp	r12, r16
     ffa:	d1 06       	cpc	r13, r17
     ffc:	08 f4       	brcc	.+2      	; 0x1000 <fat_read_file+0x1a6>
     ffe:	86 01       	movw	r16, r12
    1000:	d7 01       	movw	r26, r14
    1002:	ed 91       	ld	r30, X+
    1004:	fc 91       	ld	r31, X
    1006:	c5 01       	movw	r24, r10
    1008:	a0 e0       	ldi	r26, 0x00	; 0
    100a:	b0 e0       	ldi	r27, 0x00	; 0
    100c:	28 0f       	add	r18, r24
    100e:	39 1f       	adc	r19, r25
    1010:	4a 1f       	adc	r20, r26
    1012:	5b 1f       	adc	r21, r27
    1014:	01 90       	ld	r0, Z+
    1016:	f0 81       	ld	r31, Z
    1018:	e0 2d       	mov	r30, r0
    101a:	ca 01       	movw	r24, r20
    101c:	b9 01       	movw	r22, r18
    101e:	49 81       	ldd	r20, Y+1	; 0x01
    1020:	5a 81       	ldd	r21, Y+2	; 0x02
    1022:	98 01       	movw	r18, r16
    1024:	09 95       	icall
    1026:	88 23       	and	r24, r24
    1028:	41 f1       	breq	.+80     	; 0x107a <fat_read_file+0x220>
    102a:	c0 1a       	sub	r12, r16
    102c:	d1 0a       	sbc	r13, r17
    102e:	c8 01       	movw	r24, r16
    1030:	a0 e0       	ldi	r26, 0x00	; 0
    1032:	b0 e0       	ldi	r27, 0x00	; 0
    1034:	f2 01       	movw	r30, r4
    1036:	25 a5       	ldd	r18, Z+45	; 0x2d
    1038:	36 a5       	ldd	r19, Z+46	; 0x2e
    103a:	47 a5       	ldd	r20, Z+47	; 0x2f
    103c:	50 a9       	ldd	r21, Z+48	; 0x30
    103e:	28 0f       	add	r18, r24
    1040:	39 1f       	adc	r19, r25
    1042:	4a 1f       	adc	r20, r26
    1044:	5b 1f       	adc	r21, r27
    1046:	d2 01       	movw	r26, r4
    1048:	9d 96       	adiw	r26, 0x2d	; 45
    104a:	2d 93       	st	X+, r18
    104c:	3d 93       	st	X+, r19
    104e:	4d 93       	st	X+, r20
    1050:	5c 93       	st	X, r21
    1052:	d0 97       	sbiw	r26, 0x30	; 48
    1054:	c8 01       	movw	r24, r16
    1056:	8a 0d       	add	r24, r10
    1058:	9b 1d       	adc	r25, r11
    105a:	82 15       	cp	r24, r2
    105c:	93 05       	cpc	r25, r3
    105e:	a0 f0       	brcs	.+40     	; 0x1088 <fat_read_file+0x22e>
    1060:	8d 91       	ld	r24, X+
    1062:	9c 91       	ld	r25, X
    1064:	69 85       	ldd	r22, Y+9	; 0x09
    1066:	7a 85       	ldd	r23, Y+10	; 0x0a
    1068:	0e 94 86 05 	call	0xb0c	; 0xb0c <fat_get_next_cluster>
    106c:	9a 87       	std	Y+10, r25	; 0x0a
    106e:	89 87       	std	Y+9, r24	; 0x09
    1070:	89 2b       	or	r24, r25
    1072:	41 f4       	brne	.+16     	; 0x1084 <fat_read_file+0x22a>
    1074:	f2 01       	movw	r30, r4
    1076:	12 aa       	std	Z+50, r1	; 0x32
    1078:	11 aa       	std	Z+49, r1	; 0x31
    107a:	4b 81       	ldd	r20, Y+3	; 0x03
    107c:	5c 81       	ldd	r21, Y+4	; 0x04
    107e:	4c 19       	sub	r20, r12
    1080:	5d 09       	sbc	r21, r13
    1082:	1b c0       	rjmp	.+54     	; 0x10ba <fat_read_file+0x260>
    1084:	aa 24       	eor	r10, r10
    1086:	bb 24       	eor	r11, r11
    1088:	e9 85       	ldd	r30, Y+9	; 0x09
    108a:	fa 85       	ldd	r31, Y+10	; 0x0a
    108c:	d2 01       	movw	r26, r4
    108e:	d2 96       	adiw	r26, 0x32	; 50
    1090:	fc 93       	st	X, r31
    1092:	ee 93       	st	-X, r30
    1094:	d1 97       	sbiw	r26, 0x31	; 49
    1096:	c1 14       	cp	r12, r1
    1098:	d1 04       	cpc	r13, r1
    109a:	39 f0       	breq	.+14     	; 0x10aa <fat_read_file+0x250>
    109c:	29 81       	ldd	r18, Y+1	; 0x01
    109e:	3a 81       	ldd	r19, Y+2	; 0x02
    10a0:	20 0f       	add	r18, r16
    10a2:	31 1f       	adc	r19, r17
    10a4:	3a 83       	std	Y+2, r19	; 0x02
    10a6:	29 83       	std	Y+1, r18	; 0x01
    10a8:	79 cf       	rjmp	.-270    	; 0xf9c <fat_read_file+0x142>
    10aa:	4b 81       	ldd	r20, Y+3	; 0x03
    10ac:	5c 81       	ldd	r21, Y+4	; 0x04
    10ae:	05 c0       	rjmp	.+10     	; 0x10ba <fat_read_file+0x260>
    10b0:	4f ef       	ldi	r20, 0xFF	; 255
    10b2:	5f ef       	ldi	r21, 0xFF	; 255
    10b4:	02 c0       	rjmp	.+4      	; 0x10ba <fat_read_file+0x260>
    10b6:	40 e0       	ldi	r20, 0x00	; 0
    10b8:	50 e0       	ldi	r21, 0x00	; 0
    10ba:	ca 01       	movw	r24, r20
    10bc:	2a 96       	adiw	r28, 0x0a	; 10
    10be:	0f b6       	in	r0, 0x3f	; 63
    10c0:	f8 94       	cli
    10c2:	de bf       	out	0x3e, r29	; 62
    10c4:	0f be       	out	0x3f, r0	; 63
    10c6:	cd bf       	out	0x3d, r28	; 61
    10c8:	cf 91       	pop	r28
    10ca:	df 91       	pop	r29
    10cc:	1f 91       	pop	r17
    10ce:	0f 91       	pop	r16
    10d0:	ff 90       	pop	r15
    10d2:	ef 90       	pop	r14
    10d4:	df 90       	pop	r13
    10d6:	cf 90       	pop	r12
    10d8:	bf 90       	pop	r11
    10da:	af 90       	pop	r10
    10dc:	9f 90       	pop	r9
    10de:	8f 90       	pop	r8
    10e0:	7f 90       	pop	r7
    10e2:	6f 90       	pop	r6
    10e4:	5f 90       	pop	r5
    10e6:	4f 90       	pop	r4
    10e8:	3f 90       	pop	r3
    10ea:	2f 90       	pop	r2
    10ec:	08 95       	ret

000010ee <fat_close_dir>:
    10ee:	fc 01       	movw	r30, r24
    10f0:	00 97       	sbiw	r24, 0x00	; 0
    10f2:	11 f0       	breq	.+4      	; 0x10f8 <fat_close_dir+0xa>
    10f4:	11 82       	std	Z+1, r1	; 0x01
    10f6:	10 82       	st	Z, r1
    10f8:	08 95       	ret

000010fa <fat_reset_dir>:
    10fa:	fc 01       	movw	r30, r24
    10fc:	00 97       	sbiw	r24, 0x00	; 0
    10fe:	11 f4       	brne	.+4      	; 0x1104 <fat_reset_dir+0xa>
    1100:	80 e0       	ldi	r24, 0x00	; 0
    1102:	08 95       	ret
    1104:	83 a1       	ldd	r24, Z+35	; 0x23
    1106:	94 a1       	ldd	r25, Z+36	; 0x24
    1108:	96 a7       	std	Z+46, r25	; 0x2e
    110a:	85 a7       	std	Z+45, r24	; 0x2d
    110c:	10 aa       	std	Z+48, r1	; 0x30
    110e:	17 a6       	std	Z+47, r1	; 0x2f
    1110:	81 e0       	ldi	r24, 0x01	; 1
    1112:	08 95       	ret

00001114 <fat_delete_file>:
    1114:	7f 92       	push	r7
    1116:	8f 92       	push	r8
    1118:	9f 92       	push	r9
    111a:	af 92       	push	r10
    111c:	bf 92       	push	r11
    111e:	cf 92       	push	r12
    1120:	df 92       	push	r13
    1122:	ef 92       	push	r14
    1124:	ff 92       	push	r15
    1126:	0f 93       	push	r16
    1128:	1f 93       	push	r17
    112a:	df 93       	push	r29
    112c:	cf 93       	push	r28
    112e:	cd b7       	in	r28, 0x3d	; 61
    1130:	de b7       	in	r29, 0x3e	; 62
    1132:	2c 97       	sbiw	r28, 0x0c	; 12
    1134:	0f b6       	in	r0, 0x3f	; 63
    1136:	f8 94       	cli
    1138:	de bf       	out	0x3e, r29	; 62
    113a:	0f be       	out	0x3f, r0	; 63
    113c:	cd bf       	out	0x3d, r28	; 61
    113e:	6c 01       	movw	r12, r24
    1140:	5b 01       	movw	r10, r22
    1142:	00 97       	sbiw	r24, 0x00	; 0
    1144:	09 f4       	brne	.+2      	; 0x1148 <fat_delete_file+0x34>
    1146:	53 c0       	rjmp	.+166    	; 0x11ee <fat_delete_file+0xda>
    1148:	61 15       	cp	r22, r1
    114a:	71 05       	cpc	r23, r1
    114c:	09 f4       	brne	.+2      	; 0x1150 <fat_delete_file+0x3c>
    114e:	4f c0       	rjmp	.+158    	; 0x11ee <fat_delete_file+0xda>
    1150:	db 01       	movw	r26, r22
    1152:	97 96       	adiw	r26, 0x27	; 39
    1154:	ed 90       	ld	r14, X+
    1156:	fd 90       	ld	r15, X+
    1158:	0d 91       	ld	r16, X+
    115a:	1c 91       	ld	r17, X
    115c:	9a 97       	sbiw	r26, 0x2a	; 42
    115e:	e1 14       	cp	r14, r1
    1160:	f1 04       	cpc	r15, r1
    1162:	01 05       	cpc	r16, r1
    1164:	11 05       	cpc	r17, r1
    1166:	09 f4       	brne	.+2      	; 0x116a <fat_delete_file+0x56>
    1168:	42 c0       	rjmp	.+132    	; 0x11ee <fat_delete_file+0xda>
    116a:	4e 01       	movw	r8, r28
    116c:	08 94       	sec
    116e:	81 1c       	adc	r8, r1
    1170:	91 1c       	adc	r9, r1
    1172:	75 ee       	ldi	r23, 0xE5	; 229
    1174:	77 2e       	mov	r7, r23
    1176:	d6 01       	movw	r26, r12
    1178:	ed 91       	ld	r30, X+
    117a:	fc 91       	ld	r31, X
    117c:	01 90       	ld	r0, Z+
    117e:	f0 81       	ld	r31, Z
    1180:	e0 2d       	mov	r30, r0
    1182:	c8 01       	movw	r24, r16
    1184:	b7 01       	movw	r22, r14
    1186:	a4 01       	movw	r20, r8
    1188:	2c e0       	ldi	r18, 0x0C	; 12
    118a:	30 e0       	ldi	r19, 0x00	; 0
    118c:	09 95       	icall
    118e:	88 23       	and	r24, r24
    1190:	71 f1       	breq	.+92     	; 0x11ee <fat_delete_file+0xda>
    1192:	79 82       	std	Y+1, r7	; 0x01
    1194:	d6 01       	movw	r26, r12
    1196:	ed 91       	ld	r30, X+
    1198:	fc 91       	ld	r31, X
    119a:	04 80       	ldd	r0, Z+4	; 0x04
    119c:	f5 81       	ldd	r31, Z+5	; 0x05
    119e:	e0 2d       	mov	r30, r0
    11a0:	c8 01       	movw	r24, r16
    11a2:	b7 01       	movw	r22, r14
    11a4:	a4 01       	movw	r20, r8
    11a6:	2c e0       	ldi	r18, 0x0C	; 12
    11a8:	30 e0       	ldi	r19, 0x00	; 0
    11aa:	09 95       	icall
    11ac:	88 23       	and	r24, r24
    11ae:	f9 f0       	breq	.+62     	; 0x11ee <fat_delete_file+0xda>
    11b0:	8c 85       	ldd	r24, Y+12	; 0x0c
    11b2:	8f 30       	cpi	r24, 0x0F	; 15
    11b4:	49 f4       	brne	.+18     	; 0x11c8 <fat_delete_file+0xb4>
    11b6:	80 e2       	ldi	r24, 0x20	; 32
    11b8:	90 e0       	ldi	r25, 0x00	; 0
    11ba:	a0 e0       	ldi	r26, 0x00	; 0
    11bc:	b0 e0       	ldi	r27, 0x00	; 0
    11be:	e8 0e       	add	r14, r24
    11c0:	f9 1e       	adc	r15, r25
    11c2:	0a 1f       	adc	r16, r26
    11c4:	1b 1f       	adc	r17, r27
    11c6:	d7 cf       	rjmp	.-82     	; 0x1176 <fat_delete_file+0x62>
    11c8:	d5 01       	movw	r26, r10
    11ca:	91 96       	adiw	r26, 0x21	; 33
    11cc:	6d 91       	ld	r22, X+
    11ce:	7c 91       	ld	r23, X
    11d0:	92 97       	sbiw	r26, 0x22	; 34
    11d2:	61 15       	cp	r22, r1
    11d4:	71 05       	cpc	r23, r1
    11d6:	39 f0       	breq	.+14     	; 0x11e6 <fat_delete_file+0xd2>
    11d8:	c6 01       	movw	r24, r12
    11da:	0e 94 c6 05 	call	0xb8c	; 0xb8c <fat_free_clusters>
    11de:	20 e0       	ldi	r18, 0x00	; 0
    11e0:	30 e0       	ldi	r19, 0x00	; 0
    11e2:	88 23       	and	r24, r24
    11e4:	11 f0       	breq	.+4      	; 0x11ea <fat_delete_file+0xd6>
    11e6:	21 e0       	ldi	r18, 0x01	; 1
    11e8:	30 e0       	ldi	r19, 0x00	; 0
    11ea:	82 2f       	mov	r24, r18
    11ec:	01 c0       	rjmp	.+2      	; 0x11f0 <fat_delete_file+0xdc>
    11ee:	80 e0       	ldi	r24, 0x00	; 0
    11f0:	2c 96       	adiw	r28, 0x0c	; 12
    11f2:	0f b6       	in	r0, 0x3f	; 63
    11f4:	f8 94       	cli
    11f6:	de bf       	out	0x3e, r29	; 62
    11f8:	0f be       	out	0x3f, r0	; 63
    11fa:	cd bf       	out	0x3d, r28	; 61
    11fc:	cf 91       	pop	r28
    11fe:	df 91       	pop	r29
    1200:	1f 91       	pop	r17
    1202:	0f 91       	pop	r16
    1204:	ff 90       	pop	r15
    1206:	ef 90       	pop	r14
    1208:	df 90       	pop	r13
    120a:	cf 90       	pop	r12
    120c:	bf 90       	pop	r11
    120e:	af 90       	pop	r10
    1210:	9f 90       	pop	r9
    1212:	8f 90       	pop	r8
    1214:	7f 90       	pop	r7
    1216:	08 95       	ret

00001218 <fat_get_fs_size>:
    1218:	fc 01       	movw	r30, r24
    121a:	00 97       	sbiw	r24, 0x00	; 0
    121c:	29 f4       	brne	.+10     	; 0x1228 <fat_get_fs_size+0x10>
    121e:	20 e0       	ldi	r18, 0x00	; 0
    1220:	30 e0       	ldi	r19, 0x00	; 0
    1222:	40 e0       	ldi	r20, 0x00	; 0
    1224:	50 e0       	ldi	r21, 0x00	; 0
    1226:	14 c0       	rjmp	.+40     	; 0x1250 <fat_get_fs_size+0x38>
    1228:	62 85       	ldd	r22, Z+10	; 0x0a
    122a:	73 85       	ldd	r23, Z+11	; 0x0b
    122c:	84 85       	ldd	r24, Z+12	; 0x0c
    122e:	95 85       	ldd	r25, Z+13	; 0x0d
    1230:	96 95       	lsr	r25
    1232:	87 95       	ror	r24
    1234:	77 95       	ror	r23
    1236:	67 95       	ror	r22
    1238:	62 50       	subi	r22, 0x02	; 2
    123a:	70 40       	sbci	r23, 0x00	; 0
    123c:	80 40       	sbci	r24, 0x00	; 0
    123e:	90 40       	sbci	r25, 0x00	; 0
    1240:	20 89       	ldd	r18, Z+16	; 0x10
    1242:	31 89       	ldd	r19, Z+17	; 0x11
    1244:	40 e0       	ldi	r20, 0x00	; 0
    1246:	50 e0       	ldi	r21, 0x00	; 0
    1248:	0e 94 97 24 	call	0x492e	; 0x492e <__mulsi3>
    124c:	9b 01       	movw	r18, r22
    124e:	ac 01       	movw	r20, r24
    1250:	b9 01       	movw	r22, r18
    1252:	ca 01       	movw	r24, r20
    1254:	08 95       	ret

00001256 <fat_get_fs_free>:
    1256:	2f 92       	push	r2
    1258:	3f 92       	push	r3
    125a:	4f 92       	push	r4
    125c:	5f 92       	push	r5
    125e:	6f 92       	push	r6
    1260:	7f 92       	push	r7
    1262:	8f 92       	push	r8
    1264:	9f 92       	push	r9
    1266:	af 92       	push	r10
    1268:	bf 92       	push	r11
    126a:	cf 92       	push	r12
    126c:	df 92       	push	r13
    126e:	ef 92       	push	r14
    1270:	ff 92       	push	r15
    1272:	0f 93       	push	r16
    1274:	1f 93       	push	r17
    1276:	df 93       	push	r29
    1278:	cf 93       	push	r28
    127a:	cd b7       	in	r28, 0x3d	; 61
    127c:	de b7       	in	r29, 0x3e	; 62
    127e:	a6 97       	sbiw	r28, 0x26	; 38
    1280:	0f b6       	in	r0, 0x3f	; 63
    1282:	f8 94       	cli
    1284:	de bf       	out	0x3e, r29	; 62
    1286:	0f be       	out	0x3f, r0	; 63
    1288:	cd bf       	out	0x3d, r28	; 61
    128a:	9e a3       	std	Y+38, r25	; 0x26
    128c:	8d a3       	std	Y+37, r24	; 0x25
    128e:	89 2b       	or	r24, r25
    1290:	09 f4       	brne	.+2      	; 0x1294 <fat_get_fs_free+0x3e>
    1292:	5d c0       	rjmp	.+186    	; 0x134e <fat_get_fs_free+0xf8>
    1294:	1a 82       	std	Y+2, r1	; 0x02
    1296:	19 82       	std	Y+1, r1	; 0x01
    1298:	80 e2       	ldi	r24, 0x20	; 32
    129a:	90 e0       	ldi	r25, 0x00	; 0
    129c:	9c 83       	std	Y+4, r25	; 0x04
    129e:	8b 83       	std	Y+3, r24	; 0x03
    12a0:	ad a1       	ldd	r26, Y+37	; 0x25
    12a2:	be a1       	ldd	r27, Y+38	; 0x26
    12a4:	16 96       	adiw	r26, 0x06	; 6
    12a6:	4d 90       	ld	r4, X+
    12a8:	5d 90       	ld	r5, X+
    12aa:	6d 90       	ld	r6, X+
    12ac:	7c 90       	ld	r7, X
    12ae:	19 97       	sbiw	r26, 0x09	; 9
    12b0:	1a 96       	adiw	r26, 0x0a	; 10
    12b2:	8d 90       	ld	r8, X+
    12b4:	9d 90       	ld	r9, X+
    12b6:	ad 90       	ld	r10, X+
    12b8:	bc 90       	ld	r11, X
    12ba:	1d 97       	sbiw	r26, 0x0d	; 13
    12bc:	34 c0       	rjmp	.+104    	; 0x1326 <fat_get_fs_free+0xd0>
    12be:	be ef       	ldi	r27, 0xFE	; 254
    12c0:	8b 16       	cp	r8, r27
    12c2:	bf ef       	ldi	r27, 0xFF	; 255
    12c4:	9b 06       	cpc	r9, r27
    12c6:	b0 e0       	ldi	r27, 0x00	; 0
    12c8:	ab 06       	cpc	r10, r27
    12ca:	b0 e0       	ldi	r27, 0x00	; 0
    12cc:	bb 06       	cpc	r11, r27
    12ce:	28 f0       	brcs	.+10     	; 0x12da <fat_get_fs_free+0x84>
    12d0:	1e ef       	ldi	r17, 0xFE	; 254
    12d2:	21 2e       	mov	r2, r17
    12d4:	1f ef       	ldi	r17, 0xFF	; 255
    12d6:	31 2e       	mov	r3, r17
    12d8:	01 c0       	rjmp	.+2      	; 0x12dc <fat_get_fs_free+0x86>
    12da:	14 01       	movw	r2, r8
    12dc:	ad a1       	ldd	r26, Y+37	; 0x25
    12de:	be a1       	ldd	r27, Y+38	; 0x26
    12e0:	ed 91       	ld	r30, X+
    12e2:	fc 91       	ld	r31, X
    12e4:	02 80       	ldd	r0, Z+2	; 0x02
    12e6:	f3 81       	ldd	r31, Z+3	; 0x03
    12e8:	e0 2d       	mov	r30, r0
    12ea:	c3 01       	movw	r24, r6
    12ec:	b2 01       	movw	r22, r4
    12ee:	ae 01       	movw	r20, r28
    12f0:	4b 5f       	subi	r20, 0xFB	; 251
    12f2:	5f 4f       	sbci	r21, 0xFF	; 255
    12f4:	20 e2       	ldi	r18, 0x20	; 32
    12f6:	30 e0       	ldi	r19, 0x00	; 0
    12f8:	81 01       	movw	r16, r2
    12fa:	b6 ec       	ldi	r27, 0xC6	; 198
    12fc:	eb 2e       	mov	r14, r27
    12fe:	b9 e0       	ldi	r27, 0x09	; 9
    1300:	fb 2e       	mov	r15, r27
    1302:	6e 01       	movw	r12, r28
    1304:	08 94       	sec
    1306:	c1 1c       	adc	r12, r1
    1308:	d1 1c       	adc	r13, r1
    130a:	09 95       	icall
    130c:	88 23       	and	r24, r24
    130e:	f9 f0       	breq	.+62     	; 0x134e <fat_get_fs_free+0xf8>
    1310:	c1 01       	movw	r24, r2
    1312:	a0 e0       	ldi	r26, 0x00	; 0
    1314:	b0 e0       	ldi	r27, 0x00	; 0
    1316:	48 0e       	add	r4, r24
    1318:	59 1e       	adc	r5, r25
    131a:	6a 1e       	adc	r6, r26
    131c:	7b 1e       	adc	r7, r27
    131e:	88 1a       	sub	r8, r24
    1320:	99 0a       	sbc	r9, r25
    1322:	aa 0a       	sbc	r10, r26
    1324:	bb 0a       	sbc	r11, r27
    1326:	81 14       	cp	r8, r1
    1328:	91 04       	cpc	r9, r1
    132a:	a1 04       	cpc	r10, r1
    132c:	b1 04       	cpc	r11, r1
    132e:	39 f6       	brne	.-114    	; 0x12be <fat_get_fs_free+0x68>
    1330:	ed a1       	ldd	r30, Y+37	; 0x25
    1332:	fe a1       	ldd	r31, Y+38	; 0x26
    1334:	60 89       	ldd	r22, Z+16	; 0x10
    1336:	71 89       	ldd	r23, Z+17	; 0x11
    1338:	80 e0       	ldi	r24, 0x00	; 0
    133a:	90 e0       	ldi	r25, 0x00	; 0
    133c:	29 81       	ldd	r18, Y+1	; 0x01
    133e:	3a 81       	ldd	r19, Y+2	; 0x02
    1340:	40 e0       	ldi	r20, 0x00	; 0
    1342:	50 e0       	ldi	r21, 0x00	; 0
    1344:	0e 94 97 24 	call	0x492e	; 0x492e <__mulsi3>
    1348:	9b 01       	movw	r18, r22
    134a:	ac 01       	movw	r20, r24
    134c:	04 c0       	rjmp	.+8      	; 0x1356 <fat_get_fs_free+0x100>
    134e:	20 e0       	ldi	r18, 0x00	; 0
    1350:	30 e0       	ldi	r19, 0x00	; 0
    1352:	40 e0       	ldi	r20, 0x00	; 0
    1354:	50 e0       	ldi	r21, 0x00	; 0
    1356:	b9 01       	movw	r22, r18
    1358:	ca 01       	movw	r24, r20
    135a:	a6 96       	adiw	r28, 0x26	; 38
    135c:	0f b6       	in	r0, 0x3f	; 63
    135e:	f8 94       	cli
    1360:	de bf       	out	0x3e, r29	; 62
    1362:	0f be       	out	0x3f, r0	; 63
    1364:	cd bf       	out	0x3d, r28	; 61
    1366:	cf 91       	pop	r28
    1368:	df 91       	pop	r29
    136a:	1f 91       	pop	r17
    136c:	0f 91       	pop	r16
    136e:	ff 90       	pop	r15
    1370:	ef 90       	pop	r14
    1372:	df 90       	pop	r13
    1374:	cf 90       	pop	r12
    1376:	bf 90       	pop	r11
    1378:	af 90       	pop	r10
    137a:	9f 90       	pop	r9
    137c:	8f 90       	pop	r8
    137e:	7f 90       	pop	r7
    1380:	6f 90       	pop	r6
    1382:	5f 90       	pop	r5
    1384:	4f 90       	pop	r4
    1386:	3f 90       	pop	r3
    1388:	2f 90       	pop	r2
    138a:	08 95       	ret

0000138c <fat_get_fs_free_16_callback>:
    138c:	dc 01       	movw	r26, r24
    138e:	f9 01       	movw	r30, r18
    1390:	42 81       	ldd	r20, Z+2	; 0x02
    1392:	53 81       	ldd	r21, Z+3	; 0x03
    1394:	20 e0       	ldi	r18, 0x00	; 0
    1396:	30 e0       	ldi	r19, 0x00	; 0
    1398:	0d c0       	rjmp	.+26     	; 0x13b4 <fat_get_fs_free_16_callback+0x28>
    139a:	8d 91       	ld	r24, X+
    139c:	9c 91       	ld	r25, X
    139e:	11 97       	sbiw	r26, 0x01	; 1
    13a0:	89 2b       	or	r24, r25
    13a2:	29 f4       	brne	.+10     	; 0x13ae <fat_get_fs_free_16_callback+0x22>
    13a4:	80 81       	ld	r24, Z
    13a6:	91 81       	ldd	r25, Z+1	; 0x01
    13a8:	01 96       	adiw	r24, 0x01	; 1
    13aa:	91 83       	std	Z+1, r25	; 0x01
    13ac:	80 83       	st	Z, r24
    13ae:	2e 5f       	subi	r18, 0xFE	; 254
    13b0:	3f 4f       	sbci	r19, 0xFF	; 255
    13b2:	12 96       	adiw	r26, 0x02	; 2
    13b4:	24 17       	cp	r18, r20
    13b6:	35 07       	cpc	r19, r21
    13b8:	80 f3       	brcs	.-32     	; 0x139a <fat_get_fs_free_16_callback+0xe>
    13ba:	81 e0       	ldi	r24, 0x01	; 1
    13bc:	08 95       	ret

000013be <fat_clear_cluster>:
    13be:	cf 92       	push	r12
    13c0:	df 92       	push	r13
    13c2:	ef 92       	push	r14
    13c4:	ff 92       	push	r15
    13c6:	0f 93       	push	r16
    13c8:	1f 93       	push	r17
    13ca:	df 93       	push	r29
    13cc:	cf 93       	push	r28
    13ce:	cd b7       	in	r28, 0x3d	; 61
    13d0:	de b7       	in	r29, 0x3e	; 62
    13d2:	60 97       	sbiw	r28, 0x10	; 16
    13d4:	0f b6       	in	r0, 0x3f	; 63
    13d6:	f8 94       	cli
    13d8:	de bf       	out	0x3e, r29	; 62
    13da:	0f be       	out	0x3f, r0	; 63
    13dc:	cd bf       	out	0x3d, r28	; 61
    13de:	8c 01       	movw	r16, r24
    13e0:	62 30       	cpi	r22, 0x02	; 2
    13e2:	71 05       	cpc	r23, r1
    13e4:	10 f4       	brcc	.+4      	; 0x13ea <fat_clear_cluster+0x2c>
    13e6:	80 e0       	ldi	r24, 0x00	; 0
    13e8:	35 c0       	rjmp	.+106    	; 0x1454 <fat_clear_cluster+0x96>
    13ea:	00 97       	sbiw	r24, 0x00	; 0
    13ec:	29 f4       	brne	.+10     	; 0x13f8 <fat_clear_cluster+0x3a>
    13ee:	40 e0       	ldi	r20, 0x00	; 0
    13f0:	50 e0       	ldi	r21, 0x00	; 0
    13f2:	60 e0       	ldi	r22, 0x00	; 0
    13f4:	70 e0       	ldi	r23, 0x00	; 0
    13f6:	16 c0       	rjmp	.+44     	; 0x1424 <fat_clear_cluster+0x66>
    13f8:	62 50       	subi	r22, 0x02	; 2
    13fa:	70 40       	sbci	r23, 0x00	; 0
    13fc:	80 e0       	ldi	r24, 0x00	; 0
    13fe:	90 e0       	ldi	r25, 0x00	; 0
    1400:	f8 01       	movw	r30, r16
    1402:	20 89       	ldd	r18, Z+16	; 0x10
    1404:	31 89       	ldd	r19, Z+17	; 0x11
    1406:	40 e0       	ldi	r20, 0x00	; 0
    1408:	50 e0       	ldi	r21, 0x00	; 0
    140a:	0e 94 97 24 	call	0x492e	; 0x492e <__mulsi3>
    140e:	ab 01       	movw	r20, r22
    1410:	bc 01       	movw	r22, r24
    1412:	f8 01       	movw	r30, r16
    1414:	82 89       	ldd	r24, Z+18	; 0x12
    1416:	93 89       	ldd	r25, Z+19	; 0x13
    1418:	a4 89       	ldd	r26, Z+20	; 0x14
    141a:	b5 89       	ldd	r27, Z+21	; 0x15
    141c:	48 0f       	add	r20, r24
    141e:	59 1f       	adc	r21, r25
    1420:	6a 1f       	adc	r22, r26
    1422:	7b 1f       	adc	r23, r27
    1424:	de 01       	movw	r26, r28
    1426:	11 96       	adiw	r26, 0x01	; 1
    1428:	80 e1       	ldi	r24, 0x10	; 16
    142a:	fd 01       	movw	r30, r26
    142c:	11 92       	st	Z+, r1
    142e:	8a 95       	dec	r24
    1430:	e9 f7       	brne	.-6      	; 0x142c <fat_clear_cluster+0x6e>
    1432:	f8 01       	movw	r30, r16
    1434:	80 81       	ld	r24, Z
    1436:	91 81       	ldd	r25, Z+1	; 0x01
    1438:	20 89       	ldd	r18, Z+16	; 0x10
    143a:	31 89       	ldd	r19, Z+17	; 0x11
    143c:	fc 01       	movw	r30, r24
    143e:	c6 80       	ldd	r12, Z+6	; 0x06
    1440:	d7 80       	ldd	r13, Z+7	; 0x07
    1442:	cb 01       	movw	r24, r22
    1444:	ba 01       	movw	r22, r20
    1446:	ad 01       	movw	r20, r26
    1448:	04 e2       	ldi	r16, 0x24	; 36
    144a:	17 e0       	ldi	r17, 0x07	; 7
    144c:	ee 24       	eor	r14, r14
    144e:	ff 24       	eor	r15, r15
    1450:	f6 01       	movw	r30, r12
    1452:	09 95       	icall
    1454:	60 96       	adiw	r28, 0x10	; 16
    1456:	0f b6       	in	r0, 0x3f	; 63
    1458:	f8 94       	cli
    145a:	de bf       	out	0x3e, r29	; 62
    145c:	0f be       	out	0x3f, r0	; 63
    145e:	cd bf       	out	0x3d, r28	; 61
    1460:	cf 91       	pop	r28
    1462:	df 91       	pop	r29
    1464:	1f 91       	pop	r17
    1466:	0f 91       	pop	r16
    1468:	ff 90       	pop	r15
    146a:	ef 90       	pop	r14
    146c:	df 90       	pop	r13
    146e:	cf 90       	pop	r12
    1470:	08 95       	ret

00001472 <fat_read_dir>:
    1472:	2f 92       	push	r2
    1474:	3f 92       	push	r3
    1476:	4f 92       	push	r4
    1478:	5f 92       	push	r5
    147a:	6f 92       	push	r6
    147c:	7f 92       	push	r7
    147e:	8f 92       	push	r8
    1480:	9f 92       	push	r9
    1482:	af 92       	push	r10
    1484:	bf 92       	push	r11
    1486:	cf 92       	push	r12
    1488:	df 92       	push	r13
    148a:	ef 92       	push	r14
    148c:	ff 92       	push	r15
    148e:	0f 93       	push	r16
    1490:	1f 93       	push	r17
    1492:	df 93       	push	r29
    1494:	cf 93       	push	r28
    1496:	cd b7       	in	r28, 0x3d	; 61
    1498:	de b7       	in	r29, 0x3e	; 62
    149a:	aa 97       	sbiw	r28, 0x2a	; 42
    149c:	0f b6       	in	r0, 0x3f	; 63
    149e:	f8 94       	cli
    14a0:	de bf       	out	0x3e, r29	; 62
    14a2:	0f be       	out	0x3f, r0	; 63
    14a4:	cd bf       	out	0x3d, r28	; 61
    14a6:	4c 01       	movw	r8, r24
    14a8:	db 01       	movw	r26, r22
    14aa:	00 97       	sbiw	r24, 0x00	; 0
    14ac:	09 f4       	brne	.+2      	; 0x14b0 <fat_read_dir+0x3e>
    14ae:	b5 c0       	rjmp	.+362    	; 0x161a <fat_read_dir+0x1a8>
    14b0:	61 15       	cp	r22, r1
    14b2:	71 05       	cpc	r23, r1
    14b4:	09 f4       	brne	.+2      	; 0x14b8 <fat_read_dir+0x46>
    14b6:	b1 c0       	rjmp	.+354    	; 0x161a <fat_read_dir+0x1a8>
    14b8:	fc 01       	movw	r30, r24
    14ba:	60 80       	ld	r6, Z
    14bc:	71 80       	ldd	r7, Z+1	; 0x01
    14be:	f3 01       	movw	r30, r6
    14c0:	20 88       	ldd	r2, Z+16	; 0x10
    14c2:	31 88       	ldd	r3, Z+17	; 0x11
    14c4:	fc 01       	movw	r30, r24
    14c6:	a5 a4       	ldd	r10, Z+45	; 0x2d
    14c8:	b6 a4       	ldd	r11, Z+46	; 0x2e
    14ca:	27 a5       	ldd	r18, Z+47	; 0x2f
    14cc:	30 a9       	ldd	r19, Z+48	; 0x30
    14ce:	22 15       	cp	r18, r2
    14d0:	33 05       	cpc	r19, r3
    14d2:	08 f0       	brcs	.+2      	; 0x14d6 <fat_read_dir+0x64>
    14d4:	7e c0       	rjmp	.+252    	; 0x15d2 <fat_read_dir+0x160>
    14d6:	ae 01       	movw	r20, r28
    14d8:	4f 5f       	subi	r20, 0xFF	; 255
    14da:	5f 4f       	sbci	r21, 0xFF	; 255
    14dc:	86 e0       	ldi	r24, 0x06	; 6
    14de:	fa 01       	movw	r30, r20
    14e0:	11 92       	st	Z+, r1
    14e2:	8a 95       	dec	r24
    14e4:	e9 f7       	brne	.-6      	; 0x14e0 <fat_read_dir+0x6e>
    14e6:	8b e2       	ldi	r24, 0x2B	; 43
    14e8:	fb 01       	movw	r30, r22
    14ea:	11 92       	st	Z+, r1
    14ec:	8a 95       	dec	r24
    14ee:	e9 f7       	brne	.-6      	; 0x14ea <fat_read_dir+0x78>
    14f0:	a1 14       	cp	r10, r1
    14f2:	b1 04       	cpc	r11, r1
    14f4:	09 f0       	breq	.+2      	; 0x14f8 <fat_read_dir+0x86>
    14f6:	74 c0       	rjmp	.+232    	; 0x15e0 <fat_read_dir+0x16e>
    14f8:	f3 01       	movw	r30, r6
    14fa:	22 88       	ldd	r2, Z+18	; 0x12
    14fc:	33 88       	ldd	r3, Z+19	; 0x13
    14fe:	86 89       	ldd	r24, Z+22	; 0x16
    1500:	97 89       	ldd	r25, Z+23	; 0x17
    1502:	28 1a       	sub	r2, r24
    1504:	39 0a       	sbc	r3, r25
    1506:	6c c0       	rjmp	.+216    	; 0x15e0 <fat_read_dir+0x16e>
    1508:	72 01       	movw	r14, r4
    150a:	00 e0       	ldi	r16, 0x00	; 0
    150c:	10 e0       	ldi	r17, 0x00	; 0
    150e:	a1 14       	cp	r10, r1
    1510:	b1 04       	cpc	r11, r1
    1512:	41 f4       	brne	.+16     	; 0x1524 <fat_read_dir+0xb2>
    1514:	d3 01       	movw	r26, r6
    1516:	56 96       	adiw	r26, 0x16	; 22
    1518:	6d 91       	ld	r22, X+
    151a:	7d 91       	ld	r23, X+
    151c:	8d 91       	ld	r24, X+
    151e:	9c 91       	ld	r25, X
    1520:	59 97       	sbiw	r26, 0x19	; 25
    1522:	24 c0       	rjmp	.+72     	; 0x156c <fat_read_dir+0xfa>
    1524:	61 14       	cp	r6, r1
    1526:	71 04       	cpc	r7, r1
    1528:	d9 f0       	breq	.+54     	; 0x1560 <fat_read_dir+0xee>
    152a:	b2 e0       	ldi	r27, 0x02	; 2
    152c:	ab 16       	cp	r10, r27
    152e:	b1 04       	cpc	r11, r1
    1530:	b8 f0       	brcs	.+46     	; 0x1560 <fat_read_dir+0xee>
    1532:	f3 01       	movw	r30, r6
    1534:	20 89       	ldd	r18, Z+16	; 0x10
    1536:	31 89       	ldd	r19, Z+17	; 0x11
    1538:	40 e0       	ldi	r20, 0x00	; 0
    153a:	50 e0       	ldi	r21, 0x00	; 0
    153c:	6f a1       	ldd	r22, Y+39	; 0x27
    153e:	78 a5       	ldd	r23, Y+40	; 0x28
    1540:	89 a5       	ldd	r24, Y+41	; 0x29
    1542:	9a a5       	ldd	r25, Y+42	; 0x2a
    1544:	0e 94 97 24 	call	0x492e	; 0x492e <__mulsi3>
    1548:	9b 01       	movw	r18, r22
    154a:	ac 01       	movw	r20, r24
    154c:	f3 01       	movw	r30, r6
    154e:	82 89       	ldd	r24, Z+18	; 0x12
    1550:	93 89       	ldd	r25, Z+19	; 0x13
    1552:	a4 89       	ldd	r26, Z+20	; 0x14
    1554:	b5 89       	ldd	r27, Z+21	; 0x15
    1556:	28 0f       	add	r18, r24
    1558:	39 1f       	adc	r19, r25
    155a:	4a 1f       	adc	r20, r26
    155c:	5b 1f       	adc	r21, r27
    155e:	04 c0       	rjmp	.+8      	; 0x1568 <fat_read_dir+0xf6>
    1560:	20 e0       	ldi	r18, 0x00	; 0
    1562:	30 e0       	ldi	r19, 0x00	; 0
    1564:	40 e0       	ldi	r20, 0x00	; 0
    1566:	50 e0       	ldi	r21, 0x00	; 0
    1568:	ca 01       	movw	r24, r20
    156a:	b9 01       	movw	r22, r18
    156c:	6e 0d       	add	r22, r14
    156e:	7f 1d       	adc	r23, r15
    1570:	80 1f       	adc	r24, r16
    1572:	91 1f       	adc	r25, r17
    1574:	1c 82       	std	Y+4, r1	; 0x04
    1576:	1b 82       	std	Y+3, r1	; 0x03
    1578:	d3 01       	movw	r26, r6
    157a:	ed 91       	ld	r30, X+
    157c:	fc 91       	ld	r31, X
    157e:	81 01       	movw	r16, r2
    1580:	04 19       	sub	r16, r4
    1582:	15 09       	sbc	r17, r5
    1584:	02 80       	ldd	r0, Z+2	; 0x02
    1586:	f3 81       	ldd	r31, Z+3	; 0x03
    1588:	e0 2d       	mov	r30, r0
    158a:	ae 01       	movw	r20, r28
    158c:	49 5f       	subi	r20, 0xF9	; 249
    158e:	5f 4f       	sbci	r21, 0xFF	; 255
    1590:	20 e2       	ldi	r18, 0x20	; 32
    1592:	30 e0       	ldi	r19, 0x00	; 0
    1594:	a7 e2       	ldi	r26, 0x27	; 39
    1596:	ea 2e       	mov	r14, r26
    1598:	ab e0       	ldi	r26, 0x0B	; 11
    159a:	fa 2e       	mov	r15, r26
    159c:	6e 01       	movw	r12, r28
    159e:	08 94       	sec
    15a0:	c1 1c       	adc	r12, r1
    15a2:	d1 1c       	adc	r13, r1
    15a4:	09 95       	icall
    15a6:	88 23       	and	r24, r24
    15a8:	c1 f1       	breq	.+112    	; 0x161a <fat_read_dir+0x1a8>
    15aa:	8b 81       	ldd	r24, Y+3	; 0x03
    15ac:	9c 81       	ldd	r25, Y+4	; 0x04
    15ae:	48 0e       	add	r4, r24
    15b0:	59 1e       	adc	r5, r25
    15b2:	42 14       	cp	r4, r2
    15b4:	53 04       	cpc	r5, r3
    15b6:	30 f1       	brcs	.+76     	; 0x1604 <fat_read_dir+0x192>
    15b8:	c3 01       	movw	r24, r6
    15ba:	b5 01       	movw	r22, r10
    15bc:	0e 94 86 05 	call	0xb0c	; 0xb0c <fat_get_next_cluster>
    15c0:	5c 01       	movw	r10, r24
    15c2:	20 e0       	ldi	r18, 0x00	; 0
    15c4:	30 e0       	ldi	r19, 0x00	; 0
    15c6:	00 97       	sbiw	r24, 0x00	; 0
    15c8:	69 f4       	brne	.+26     	; 0x15e4 <fat_read_dir+0x172>
    15ca:	8e 81       	ldd	r24, Y+6	; 0x06
    15cc:	88 23       	and	r24, r24
    15ce:	f1 f4       	brne	.+60     	; 0x160c <fat_read_dir+0x19a>
    15d0:	f4 01       	movw	r30, r8
    15d2:	83 a1       	ldd	r24, Z+35	; 0x23
    15d4:	94 a1       	ldd	r25, Z+36	; 0x24
    15d6:	96 a7       	std	Z+46, r25	; 0x2e
    15d8:	85 a7       	std	Z+45, r24	; 0x2d
    15da:	10 aa       	std	Z+48, r1	; 0x30
    15dc:	17 a6       	std	Z+47, r1	; 0x2f
    15de:	1d c0       	rjmp	.+58     	; 0x161a <fat_read_dir+0x1a8>
    15e0:	ba 83       	std	Y+2, r27	; 0x02
    15e2:	a9 83       	std	Y+1, r26	; 0x01
    15e4:	29 01       	movw	r4, r18
    15e6:	8e ef       	ldi	r24, 0xFE	; 254
    15e8:	9f ef       	ldi	r25, 0xFF	; 255
    15ea:	a8 0e       	add	r10, r24
    15ec:	b9 1e       	adc	r11, r25
    15ee:	c5 01       	movw	r24, r10
    15f0:	a0 e0       	ldi	r26, 0x00	; 0
    15f2:	b0 e0       	ldi	r27, 0x00	; 0
    15f4:	8f a3       	std	Y+39, r24	; 0x27
    15f6:	98 a7       	std	Y+40, r25	; 0x28
    15f8:	a9 a7       	std	Y+41, r26	; 0x29
    15fa:	ba a7       	std	Y+42, r27	; 0x2a
    15fc:	a2 e0       	ldi	r26, 0x02	; 2
    15fe:	b0 e0       	ldi	r27, 0x00	; 0
    1600:	aa 0e       	add	r10, r26
    1602:	bb 1e       	adc	r11, r27
    1604:	8e 81       	ldd	r24, Y+6	; 0x06
    1606:	88 23       	and	r24, r24
    1608:	09 f4       	brne	.+2      	; 0x160c <fat_read_dir+0x19a>
    160a:	7e cf       	rjmp	.-260    	; 0x1508 <fat_read_dir+0x96>
    160c:	f4 01       	movw	r30, r8
    160e:	b6 a6       	std	Z+46, r11	; 0x2e
    1610:	a5 a6       	std	Z+45, r10	; 0x2d
    1612:	50 aa       	std	Z+48, r5	; 0x30
    1614:	47 a6       	std	Z+47, r4	; 0x2f
    1616:	8e 81       	ldd	r24, Y+6	; 0x06
    1618:	01 c0       	rjmp	.+2      	; 0x161c <fat_read_dir+0x1aa>
    161a:	80 e0       	ldi	r24, 0x00	; 0
    161c:	aa 96       	adiw	r28, 0x2a	; 42
    161e:	0f b6       	in	r0, 0x3f	; 63
    1620:	f8 94       	cli
    1622:	de bf       	out	0x3e, r29	; 62
    1624:	0f be       	out	0x3f, r0	; 63
    1626:	cd bf       	out	0x3d, r28	; 61
    1628:	cf 91       	pop	r28
    162a:	df 91       	pop	r29
    162c:	1f 91       	pop	r17
    162e:	0f 91       	pop	r16
    1630:	ff 90       	pop	r15
    1632:	ef 90       	pop	r14
    1634:	df 90       	pop	r13
    1636:	cf 90       	pop	r12
    1638:	bf 90       	pop	r11
    163a:	af 90       	pop	r10
    163c:	9f 90       	pop	r9
    163e:	8f 90       	pop	r8
    1640:	7f 90       	pop	r7
    1642:	6f 90       	pop	r6
    1644:	5f 90       	pop	r5
    1646:	4f 90       	pop	r4
    1648:	3f 90       	pop	r3
    164a:	2f 90       	pop	r2
    164c:	08 95       	ret

0000164e <fat_dir_entry_read_callback>:
    164e:	cf 92       	push	r12
    1650:	df 92       	push	r13
    1652:	ef 92       	push	r14
    1654:	ff 92       	push	r15
    1656:	0f 93       	push	r16
    1658:	1f 93       	push	r17
    165a:	df 93       	push	r29
    165c:	cf 93       	push	r28
    165e:	cd b7       	in	r28, 0x3d	; 61
    1660:	de b7       	in	r29, 0x3e	; 62
    1662:	2d 97       	sbiw	r28, 0x0d	; 13
    1664:	0f b6       	in	r0, 0x3f	; 63
    1666:	f8 94       	cli
    1668:	de bf       	out	0x3e, r29	; 62
    166a:	0f be       	out	0x3f, r0	; 63
    166c:	cd bf       	out	0x3d, r28	; 61
    166e:	dc 01       	movw	r26, r24
    1670:	6a 01       	movw	r12, r20
    1672:	7b 01       	movw	r14, r22
    1674:	89 01       	movw	r16, r18
    1676:	f9 01       	movw	r30, r18
    1678:	40 81       	ld	r20, Z
    167a:	51 81       	ldd	r21, Z+1	; 0x01
    167c:	82 81       	ldd	r24, Z+2	; 0x02
    167e:	93 81       	ldd	r25, Z+3	; 0x03
    1680:	80 96       	adiw	r24, 0x20	; 32
    1682:	93 83       	std	Z+3, r25	; 0x03
    1684:	82 83       	std	Z+2, r24	; 0x02
    1686:	9c 91       	ld	r25, X
    1688:	95 3e       	cpi	r25, 0xE5	; 229
    168a:	11 f0       	breq	.+4      	; 0x1690 <fat_dir_entry_read_callback+0x42>
    168c:	99 23       	and	r25, r25
    168e:	19 f4       	brne	.+6      	; 0x1696 <fat_dir_entry_read_callback+0x48>
    1690:	f8 01       	movw	r30, r16
    1692:	14 82       	std	Z+4, r1	; 0x04
    1694:	ea c0       	rjmp	.+468    	; 0x186a <fat_dir_entry_read_callback+0x21c>
    1696:	1b 96       	adiw	r26, 0x0b	; 11
    1698:	8c 91       	ld	r24, X
    169a:	1b 97       	sbiw	r26, 0x0b	; 11
    169c:	8f 30       	cpi	r24, 0x0F	; 15
    169e:	09 f0       	breq	.+2      	; 0x16a2 <fat_dir_entry_read_callback+0x54>
    16a0:	53 c0       	rjmp	.+166    	; 0x1748 <fat_dir_entry_read_callback+0xfa>
    16a2:	f9 01       	movw	r30, r18
    16a4:	94 81       	ldd	r25, Z+4	; 0x04
    16a6:	99 23       	and	r25, r25
    16a8:	29 f0       	breq	.+10     	; 0x16b4 <fat_dir_entry_read_callback+0x66>
    16aa:	1d 96       	adiw	r26, 0x0d	; 13
    16ac:	8c 91       	ld	r24, X
    16ae:	1d 97       	sbiw	r26, 0x0d	; 13
    16b0:	98 17       	cp	r25, r24
    16b2:	79 f0       	breq	.+30     	; 0x16d2 <fat_dir_entry_read_callback+0x84>
    16b4:	8b e2       	ldi	r24, 0x2B	; 43
    16b6:	fa 01       	movw	r30, r20
    16b8:	11 92       	st	Z+, r1
    16ba:	8a 95       	dec	r24
    16bc:	e9 f7       	brne	.-6      	; 0x16b8 <fat_dir_entry_read_callback+0x6a>
    16be:	1d 96       	adiw	r26, 0x0d	; 13
    16c0:	8c 91       	ld	r24, X
    16c2:	1d 97       	sbiw	r26, 0x0d	; 13
    16c4:	f8 01       	movw	r30, r16
    16c6:	84 83       	std	Z+4, r24	; 0x04
    16c8:	fa 01       	movw	r30, r20
    16ca:	c7 a2       	std	Z+39, r12	; 0x27
    16cc:	d0 a6       	std	Z+40, r13	; 0x28
    16ce:	e1 a6       	std	Z+41, r14	; 0x29
    16d0:	f2 a6       	std	Z+42, r15	; 0x2a
    16d2:	8c 91       	ld	r24, X
    16d4:	90 e0       	ldi	r25, 0x00	; 0
    16d6:	8f 73       	andi	r24, 0x3F	; 63
    16d8:	90 70       	andi	r25, 0x00	; 0
    16da:	01 97       	sbiw	r24, 0x01	; 1
    16dc:	2d e0       	ldi	r18, 0x0D	; 13
    16de:	30 e0       	ldi	r19, 0x00	; 0
    16e0:	82 9f       	mul	r24, r18
    16e2:	b0 01       	movw	r22, r0
    16e4:	83 9f       	mul	r24, r19
    16e6:	70 0d       	add	r23, r0
    16e8:	92 9f       	mul	r25, r18
    16ea:	70 0d       	add	r23, r0
    16ec:	11 24       	eor	r1, r1
    16ee:	9e 01       	movw	r18, r28
    16f0:	2f 5f       	subi	r18, 0xFF	; 255
    16f2:	3f 4f       	sbci	r19, 0xFF	; 255
    16f4:	05 e2       	ldi	r16, 0x25	; 37
    16f6:	11 e0       	ldi	r17, 0x01	; 1
    16f8:	8d e0       	ldi	r24, 0x0D	; 13
    16fa:	f8 01       	movw	r30, r16
    16fc:	01 90       	ld	r0, Z+
    16fe:	8f 01       	movw	r16, r30
    1700:	f9 01       	movw	r30, r18
    1702:	01 92       	st	Z+, r0
    1704:	9f 01       	movw	r18, r30
    1706:	81 50       	subi	r24, 0x01	; 1
    1708:	c1 f7       	brne	.-16     	; 0x16fa <fat_dir_entry_read_callback+0xac>
    170a:	46 0f       	add	r20, r22
    170c:	57 1f       	adc	r21, r23
    170e:	20 e0       	ldi	r18, 0x00	; 0
    1710:	30 e0       	ldi	r19, 0x00	; 0
    1712:	8e 01       	movw	r16, r28
    1714:	0f 5f       	subi	r16, 0xFF	; 255
    1716:	1f 4f       	sbci	r17, 0xFF	; 255
    1718:	11 c0       	rjmp	.+34     	; 0x173c <fat_dir_entry_read_callback+0xee>
    171a:	f8 01       	movw	r30, r16
    171c:	e2 0f       	add	r30, r18
    171e:	f3 1f       	adc	r31, r19
    1720:	80 81       	ld	r24, Z
    1722:	fd 01       	movw	r30, r26
    1724:	e8 0f       	add	r30, r24
    1726:	f1 1d       	adc	r31, r1
    1728:	80 81       	ld	r24, Z
    172a:	fa 01       	movw	r30, r20
    172c:	81 93       	st	Z+, r24
    172e:	af 01       	movw	r20, r30
    1730:	2f 5f       	subi	r18, 0xFF	; 255
    1732:	3f 4f       	sbci	r19, 0xFF	; 255
    1734:	2d 30       	cpi	r18, 0x0D	; 13
    1736:	31 05       	cpc	r19, r1
    1738:	09 f4       	brne	.+2      	; 0x173c <fat_dir_entry_read_callback+0xee>
    173a:	97 c0       	rjmp	.+302    	; 0x186a <fat_dir_entry_read_callback+0x21c>
    173c:	c9 01       	movw	r24, r18
    173e:	86 0f       	add	r24, r22
    1740:	97 1f       	adc	r25, r23
    1742:	4f 97       	sbiw	r24, 0x1f	; 31
    1744:	50 f3       	brcs	.-44     	; 0x171a <fat_dir_entry_read_callback+0xcc>
    1746:	91 c0       	rjmp	.+290    	; 0x186a <fat_dir_entry_read_callback+0x21c>
    1748:	fa 01       	movw	r30, r20
    174a:	80 81       	ld	r24, Z
    174c:	88 23       	and	r24, r24
    174e:	99 f0       	breq	.+38     	; 0x1776 <fat_dir_entry_read_callback+0x128>
    1750:	f9 01       	movw	r30, r18
    1752:	34 81       	ldd	r19, Z+4	; 0x04
    1754:	fd 01       	movw	r30, r26
    1756:	21 e0       	ldi	r18, 0x01	; 1
    1758:	89 2f       	mov	r24, r25
    175a:	86 95       	lsr	r24
    175c:	97 95       	ror	r25
    175e:	99 27       	eor	r25, r25
    1760:	97 95       	ror	r25
    1762:	98 2b       	or	r25, r24
    1764:	81 81       	ldd	r24, Z+1	; 0x01
    1766:	98 0f       	add	r25, r24
    1768:	2f 5f       	subi	r18, 0xFF	; 255
    176a:	31 96       	adiw	r30, 0x01	; 1
    176c:	2b 30       	cpi	r18, 0x0B	; 11
    176e:	a1 f7       	brne	.-24     	; 0x1758 <fat_dir_entry_read_callback+0x10a>
    1770:	39 17       	cp	r19, r25
    1772:	09 f4       	brne	.+2      	; 0x1776 <fat_dir_entry_read_callback+0x128>
    1774:	60 c0       	rjmp	.+192    	; 0x1836 <fat_dir_entry_read_callback+0x1e8>
    1776:	8b e2       	ldi	r24, 0x2B	; 43
    1778:	fa 01       	movw	r30, r20
    177a:	11 92       	st	Z+, r1
    177c:	8a 95       	dec	r24
    177e:	e9 f7       	brne	.-6      	; 0x177a <fat_dir_entry_read_callback+0x12c>
    1780:	fa 01       	movw	r30, r20
    1782:	c7 a2       	std	Z+39, r12	; 0x27
    1784:	d0 a6       	std	Z+40, r13	; 0x28
    1786:	e1 a6       	std	Z+41, r14	; 0x29
    1788:	f2 a6       	std	Z+42, r15	; 0x2a
    178a:	7d 01       	movw	r14, r26
    178c:	9a 01       	movw	r18, r20
    178e:	6d 01       	movw	r12, r26
    1790:	60 e0       	ldi	r22, 0x00	; 0
    1792:	f6 01       	movw	r30, r12
    1794:	90 81       	ld	r25, Z
    1796:	90 32       	cpi	r25, 0x20	; 32
    1798:	c1 f0       	breq	.+48     	; 0x17ca <fat_dir_entry_read_callback+0x17c>
    179a:	f9 01       	movw	r30, r18
    179c:	90 83       	st	Z, r25
    179e:	1c 96       	adiw	r26, 0x0c	; 12
    17a0:	8c 91       	ld	r24, X
    17a2:	1c 97       	sbiw	r26, 0x0c	; 12
    17a4:	83 ff       	sbrs	r24, 3
    17a6:	09 c0       	rjmp	.+18     	; 0x17ba <fat_dir_entry_read_callback+0x16c>
    17a8:	f6 01       	movw	r30, r12
    17aa:	80 81       	ld	r24, Z
    17ac:	81 34       	cpi	r24, 0x41	; 65
    17ae:	28 f0       	brcs	.+10     	; 0x17ba <fat_dir_entry_read_callback+0x16c>
    17b0:	8b 35       	cpi	r24, 0x5B	; 91
    17b2:	18 f4       	brcc	.+6      	; 0x17ba <fat_dir_entry_read_callback+0x16c>
    17b4:	90 5e       	subi	r25, 0xE0	; 224
    17b6:	f9 01       	movw	r30, r18
    17b8:	90 83       	st	Z, r25
    17ba:	6f 5f       	subi	r22, 0xFF	; 255
    17bc:	08 94       	sec
    17be:	c1 1c       	adc	r12, r1
    17c0:	d1 1c       	adc	r13, r1
    17c2:	2f 5f       	subi	r18, 0xFF	; 255
    17c4:	3f 4f       	sbci	r19, 0xFF	; 255
    17c6:	68 30       	cpi	r22, 0x08	; 8
    17c8:	21 f7       	brne	.-56     	; 0x1792 <fat_dir_entry_read_callback+0x144>
    17ca:	fa 01       	movw	r30, r20
    17cc:	80 81       	ld	r24, Z
    17ce:	85 30       	cpi	r24, 0x05	; 5
    17d0:	11 f4       	brne	.+4      	; 0x17d6 <fat_dir_entry_read_callback+0x188>
    17d2:	85 ee       	ldi	r24, 0xE5	; 229
    17d4:	80 83       	st	Z, r24
    17d6:	18 96       	adiw	r26, 0x08	; 8
    17d8:	8c 91       	ld	r24, X
    17da:	18 97       	sbiw	r26, 0x08	; 8
    17dc:	80 32       	cpi	r24, 0x20	; 32
    17de:	39 f1       	breq	.+78     	; 0x182e <fat_dir_entry_read_callback+0x1e0>
    17e0:	fa 01       	movw	r30, r20
    17e2:	e6 0f       	add	r30, r22
    17e4:	f1 1d       	adc	r31, r1
    17e6:	8e e2       	ldi	r24, 0x2E	; 46
    17e8:	80 83       	st	Z, r24
    17ea:	26 2f       	mov	r18, r22
    17ec:	2f 5f       	subi	r18, 0xFF	; 255
    17ee:	36 2f       	mov	r19, r22
    17f0:	3c 5f       	subi	r19, 0xFC	; 252
    17f2:	f7 01       	movw	r30, r14
    17f4:	90 85       	ldd	r25, Z+8	; 0x08
    17f6:	90 32       	cpi	r25, 0x20	; 32
    17f8:	c9 f0       	breq	.+50     	; 0x182c <fat_dir_entry_read_callback+0x1de>
    17fa:	ba 01       	movw	r22, r20
    17fc:	62 0f       	add	r22, r18
    17fe:	71 1d       	adc	r23, r1
    1800:	fb 01       	movw	r30, r22
    1802:	90 83       	st	Z, r25
    1804:	1c 96       	adiw	r26, 0x0c	; 12
    1806:	8c 91       	ld	r24, X
    1808:	1c 97       	sbiw	r26, 0x0c	; 12
    180a:	84 ff       	sbrs	r24, 4
    180c:	09 c0       	rjmp	.+18     	; 0x1820 <fat_dir_entry_read_callback+0x1d2>
    180e:	f7 01       	movw	r30, r14
    1810:	80 85       	ldd	r24, Z+8	; 0x08
    1812:	81 34       	cpi	r24, 0x41	; 65
    1814:	28 f0       	brcs	.+10     	; 0x1820 <fat_dir_entry_read_callback+0x1d2>
    1816:	8b 35       	cpi	r24, 0x5B	; 91
    1818:	18 f4       	brcc	.+6      	; 0x1820 <fat_dir_entry_read_callback+0x1d2>
    181a:	90 5e       	subi	r25, 0xE0	; 224
    181c:	fb 01       	movw	r30, r22
    181e:	90 83       	st	Z, r25
    1820:	2f 5f       	subi	r18, 0xFF	; 255
    1822:	08 94       	sec
    1824:	e1 1c       	adc	r14, r1
    1826:	f1 1c       	adc	r15, r1
    1828:	23 17       	cp	r18, r19
    182a:	19 f7       	brne	.-58     	; 0x17f2 <fat_dir_entry_read_callback+0x1a4>
    182c:	62 2f       	mov	r22, r18
    182e:	fa 01       	movw	r30, r20
    1830:	e6 0f       	add	r30, r22
    1832:	f1 1d       	adc	r31, r1
    1834:	10 82       	st	Z, r1
    1836:	1b 96       	adiw	r26, 0x0b	; 11
    1838:	8c 91       	ld	r24, X
    183a:	1b 97       	sbiw	r26, 0x0b	; 11
    183c:	fa 01       	movw	r30, r20
    183e:	80 a3       	std	Z+32, r24	; 0x20
    1840:	5a 96       	adiw	r26, 0x1a	; 26
    1842:	8d 91       	ld	r24, X+
    1844:	9c 91       	ld	r25, X
    1846:	5b 97       	sbiw	r26, 0x1b	; 27
    1848:	92 a3       	std	Z+34, r25	; 0x22
    184a:	81 a3       	std	Z+33, r24	; 0x21
    184c:	5c 96       	adiw	r26, 0x1c	; 28
    184e:	8d 91       	ld	r24, X+
    1850:	9d 91       	ld	r25, X+
    1852:	0d 90       	ld	r0, X+
    1854:	bc 91       	ld	r27, X
    1856:	a0 2d       	mov	r26, r0
    1858:	83 a3       	std	Z+35, r24	; 0x23
    185a:	94 a3       	std	Z+36, r25	; 0x24
    185c:	a5 a3       	std	Z+37, r26	; 0x25
    185e:	b6 a3       	std	Z+38, r27	; 0x26
    1860:	81 e0       	ldi	r24, 0x01	; 1
    1862:	f8 01       	movw	r30, r16
    1864:	85 83       	std	Z+5, r24	; 0x05
    1866:	80 e0       	ldi	r24, 0x00	; 0
    1868:	01 c0       	rjmp	.+2      	; 0x186c <fat_dir_entry_read_callback+0x21e>
    186a:	81 e0       	ldi	r24, 0x01	; 1
    186c:	2d 96       	adiw	r28, 0x0d	; 13
    186e:	0f b6       	in	r0, 0x3f	; 63
    1870:	f8 94       	cli
    1872:	de bf       	out	0x3e, r29	; 62
    1874:	0f be       	out	0x3f, r0	; 63
    1876:	cd bf       	out	0x3d, r28	; 61
    1878:	cf 91       	pop	r28
    187a:	df 91       	pop	r29
    187c:	1f 91       	pop	r17
    187e:	0f 91       	pop	r16
    1880:	ff 90       	pop	r15
    1882:	ef 90       	pop	r14
    1884:	df 90       	pop	r13
    1886:	cf 90       	pop	r12
    1888:	08 95       	ret

0000188a <fat_open>:
    188a:	2f 92       	push	r2
    188c:	3f 92       	push	r3
    188e:	4f 92       	push	r4
    1890:	5f 92       	push	r5
    1892:	6f 92       	push	r6
    1894:	7f 92       	push	r7
    1896:	8f 92       	push	r8
    1898:	9f 92       	push	r9
    189a:	af 92       	push	r10
    189c:	bf 92       	push	r11
    189e:	cf 92       	push	r12
    18a0:	df 92       	push	r13
    18a2:	ef 92       	push	r14
    18a4:	ff 92       	push	r15
    18a6:	0f 93       	push	r16
    18a8:	1f 93       	push	r17
    18aa:	df 93       	push	r29
    18ac:	cf 93       	push	r28
    18ae:	cd b7       	in	r28, 0x3d	; 61
    18b0:	de b7       	in	r29, 0x3e	; 62
    18b2:	a8 97       	sbiw	r28, 0x28	; 40
    18b4:	0f b6       	in	r0, 0x3f	; 63
    18b6:	f8 94       	cli
    18b8:	de bf       	out	0x3e, r29	; 62
    18ba:	0f be       	out	0x3f, r0	; 63
    18bc:	cd bf       	out	0x3d, r28	; 61
    18be:	98 a7       	std	Y+40, r25	; 0x28
    18c0:	8f a3       	std	Y+39, r24	; 0x27
    18c2:	00 97       	sbiw	r24, 0x00	; 0
    18c4:	09 f4       	brne	.+2      	; 0x18c8 <fat_open+0x3e>
    18c6:	5c c1       	rjmp	.+696    	; 0x1b80 <fat_open+0x2f6>
    18c8:	dc 01       	movw	r26, r24
    18ca:	14 96       	adiw	r26, 0x04	; 4
    18cc:	8d 91       	ld	r24, X+
    18ce:	9c 91       	ld	r25, X
    18d0:	15 97       	sbiw	r26, 0x05	; 5
    18d2:	89 2b       	or	r24, r25
    18d4:	09 f4       	brne	.+2      	; 0x18d8 <fat_open+0x4e>
    18d6:	54 c1       	rjmp	.+680    	; 0x1b80 <fat_open+0x2f6>
    18d8:	16 96       	adiw	r26, 0x06	; 6
    18da:	8d 91       	ld	r24, X+
    18dc:	9c 91       	ld	r25, X
    18de:	17 97       	sbiw	r26, 0x07	; 7
    18e0:	89 2b       	or	r24, r25
    18e2:	09 f4       	brne	.+2      	; 0x18e6 <fat_open+0x5c>
    18e4:	4d c1       	rjmp	.+666    	; 0x1b80 <fat_open+0x2f6>
    18e6:	68 c1       	rjmp	.+720    	; 0x1bb8 <fat_open+0x32e>
    18e8:	ea e4       	ldi	r30, 0x4A	; 74
    18ea:	f2 e0       	ldi	r31, 0x02	; 2
    18ec:	8c e1       	ldi	r24, 0x1C	; 28
    18ee:	df 01       	movw	r26, r30
    18f0:	1d 92       	st	X+, r1
    18f2:	8a 95       	dec	r24
    18f4:	e9 f7       	brne	.-6      	; 0x18f0 <fat_open+0x66>
    18f6:	ef a1       	ldd	r30, Y+39	; 0x27
    18f8:	f8 a5       	ldd	r31, Y+40	; 0x28
    18fa:	f0 93 4b 02 	sts	0x024B, r31
    18fe:	e0 93 4a 02 	sts	0x024A, r30
    1902:	21 84       	ldd	r2, Z+9	; 0x09
    1904:	32 84       	ldd	r3, Z+10	; 0x0a
    1906:	43 84       	ldd	r4, Z+11	; 0x0b
    1908:	54 84       	ldd	r5, Z+12	; 0x0c
    190a:	59 e0       	ldi	r21, 0x09	; 9
    190c:	22 0c       	add	r2, r2
    190e:	33 1c       	adc	r3, r3
    1910:	44 1c       	adc	r4, r4
    1912:	55 1c       	adc	r5, r5
    1914:	5a 95       	dec	r21
    1916:	d1 f7       	brne	.-12     	; 0x190c <fat_open+0x82>
    1918:	c2 01       	movw	r24, r4
    191a:	b1 01       	movw	r22, r2
    191c:	65 5f       	subi	r22, 0xF5	; 245
    191e:	7f 4f       	sbci	r23, 0xFF	; 255
    1920:	8f 4f       	sbci	r24, 0xFF	; 255
    1922:	9f 4f       	sbci	r25, 0xFF	; 255
    1924:	01 90       	ld	r0, Z+
    1926:	f0 81       	ld	r31, Z
    1928:	e0 2d       	mov	r30, r0
    192a:	ae 01       	movw	r20, r28
    192c:	4f 5f       	subi	r20, 0xFF	; 255
    192e:	5f 4f       	sbci	r21, 0xFF	; 255
    1930:	29 e1       	ldi	r18, 0x19	; 25
    1932:	30 e0       	ldi	r19, 0x00	; 0
    1934:	09 95       	icall
    1936:	88 23       	and	r24, r24
    1938:	09 f4       	brne	.+2      	; 0x193c <fat_open+0xb2>
    193a:	45 c1       	rjmp	.+650    	; 0x1bc6 <fat_open+0x33c>
    193c:	e9 81       	ldd	r30, Y+1	; 0x01
    193e:	fa 81       	ldd	r31, Y+2	; 0x02
    1940:	fb a3       	std	Y+35, r31	; 0x23
    1942:	ea a3       	std	Y+34, r30	; 0x22
    1944:	2c 81       	ldd	r18, Y+4	; 0x04
    1946:	3d 81       	ldd	r19, Y+5	; 0x05
    1948:	fb 81       	ldd	r31, Y+3	; 0x03
    194a:	fc a3       	std	Y+36, r31	; 0x24
    194c:	4e 81       	ldd	r20, Y+6	; 0x06
    194e:	8f 81       	ldd	r24, Y+7	; 0x07
    1950:	98 85       	ldd	r25, Y+8	; 0x08
    1952:	9e a3       	std	Y+38, r25	; 0x26
    1954:	8d a3       	std	Y+37, r24	; 0x25
    1956:	e9 85       	ldd	r30, Y+9	; 0x09
    1958:	fa 85       	ldd	r31, Y+10	; 0x0a
    195a:	6c 85       	ldd	r22, Y+12	; 0x0c
    195c:	7d 85       	ldd	r23, Y+13	; 0x0d
    195e:	6e 88       	ldd	r6, Y+22	; 0x16
    1960:	7f 88       	ldd	r7, Y+23	; 0x17
    1962:	88 8c       	ldd	r8, Y+24	; 0x18
    1964:	99 8c       	ldd	r9, Y+25	; 0x19
    1966:	61 14       	cp	r6, r1
    1968:	71 04       	cpc	r7, r1
    196a:	81 04       	cpc	r8, r1
    196c:	91 04       	cpc	r9, r1
    196e:	31 f4       	brne	.+12     	; 0x197c <fat_open+0xf2>
    1970:	30 97       	sbiw	r30, 0x00	; 0
    1972:	09 f4       	brne	.+2      	; 0x1976 <fat_open+0xec>
    1974:	28 c1       	rjmp	.+592    	; 0x1bc6 <fat_open+0x33c>
    1976:	3f 01       	movw	r6, r30
    1978:	88 24       	eor	r8, r8
    197a:	99 24       	eor	r9, r9
    197c:	61 15       	cp	r22, r1
    197e:	71 05       	cpc	r23, r1
    1980:	09 f4       	brne	.+2      	; 0x1984 <fat_open+0xfa>
    1982:	21 c1       	rjmp	.+578    	; 0x1bc6 <fat_open+0x33c>
    1984:	c9 01       	movw	r24, r18
    1986:	a0 e0       	ldi	r26, 0x00	; 0
    1988:	b0 e0       	ldi	r27, 0x00	; 0
    198a:	8e 8f       	std	Y+30, r24	; 0x1e
    198c:	9f 8f       	std	Y+31, r25	; 0x1f
    198e:	a8 a3       	std	Y+32, r26	; 0x20
    1990:	b9 a3       	std	Y+33, r27	; 0x21
    1992:	80 e0       	ldi	r24, 0x00	; 0
    1994:	90 e0       	ldi	r25, 0x00	; 0
    1996:	24 2f       	mov	r18, r20
    1998:	30 e0       	ldi	r19, 0x00	; 0
    199a:	40 e0       	ldi	r20, 0x00	; 0
    199c:	50 e0       	ldi	r21, 0x00	; 0
    199e:	0e 94 97 24 	call	0x492e	; 0x492e <__mulsi3>
    19a2:	6a 8f       	std	Y+26, r22	; 0x1a
    19a4:	7b 8f       	std	Y+27, r23	; 0x1b
    19a6:	8c 8f       	std	Y+28, r24	; 0x1c
    19a8:	9d 8f       	std	Y+29, r25	; 0x1d
    19aa:	84 01       	movw	r16, r8
    19ac:	73 01       	movw	r14, r6
    19ae:	2e 8d       	ldd	r18, Y+30	; 0x1e
    19b0:	3f 8d       	ldd	r19, Y+31	; 0x1f
    19b2:	48 a1       	ldd	r20, Y+32	; 0x20
    19b4:	59 a1       	ldd	r21, Y+33	; 0x21
    19b6:	e2 1a       	sub	r14, r18
    19b8:	f3 0a       	sbc	r15, r19
    19ba:	04 0b       	sbc	r16, r20
    19bc:	15 0b       	sbc	r17, r21
    19be:	e6 1a       	sub	r14, r22
    19c0:	f7 0a       	sbc	r15, r23
    19c2:	08 0b       	sbc	r16, r24
    19c4:	19 0b       	sbc	r17, r25
    19c6:	8a a1       	ldd	r24, Y+34	; 0x22
    19c8:	9b a1       	ldd	r25, Y+35	; 0x23
    19ca:	01 97       	sbiw	r24, 0x01	; 1
    19cc:	2d a1       	ldd	r18, Y+37	; 0x25
    19ce:	3e a1       	ldd	r19, Y+38	; 0x26
    19d0:	45 e0       	ldi	r20, 0x05	; 5
    19d2:	22 0f       	add	r18, r18
    19d4:	33 1f       	adc	r19, r19
    19d6:	4a 95       	dec	r20
    19d8:	e1 f7       	brne	.-8      	; 0x19d2 <fat_open+0x148>
    19da:	82 0f       	add	r24, r18
    19dc:	93 1f       	adc	r25, r19
    19de:	6a a1       	ldd	r22, Y+34	; 0x22
    19e0:	7b a1       	ldd	r23, Y+35	; 0x23
    19e2:	0e 94 b6 24 	call	0x496c	; 0x496c <__udivmodhi4>
    19e6:	80 e0       	ldi	r24, 0x00	; 0
    19e8:	90 e0       	ldi	r25, 0x00	; 0
    19ea:	e6 1a       	sub	r14, r22
    19ec:	f7 0a       	sbc	r15, r23
    19ee:	08 0b       	sbc	r16, r24
    19f0:	19 0b       	sbc	r17, r25
    19f2:	8c a1       	ldd	r24, Y+36	; 0x24
    19f4:	28 2f       	mov	r18, r24
    19f6:	30 e0       	ldi	r19, 0x00	; 0
    19f8:	40 e0       	ldi	r20, 0x00	; 0
    19fa:	50 e0       	ldi	r21, 0x00	; 0
    19fc:	c8 01       	movw	r24, r16
    19fe:	b7 01       	movw	r22, r14
    1a00:	0e 94 dd 24 	call	0x49ba	; 0x49ba <__udivmodsi4>
    1a04:	79 01       	movw	r14, r18
    1a06:	8a 01       	movw	r16, r20
    1a08:	95 ef       	ldi	r25, 0xF5	; 245
    1a0a:	e9 16       	cp	r14, r25
    1a0c:	9f e0       	ldi	r25, 0x0F	; 15
    1a0e:	f9 06       	cpc	r15, r25
    1a10:	90 e0       	ldi	r25, 0x00	; 0
    1a12:	09 07       	cpc	r16, r25
    1a14:	90 e0       	ldi	r25, 0x00	; 0
    1a16:	19 07       	cpc	r17, r25
    1a18:	08 f4       	brcc	.+2      	; 0x1a1c <fat_open+0x192>
    1a1a:	d5 c0       	rjmp	.+426    	; 0x1bc6 <fat_open+0x33c>
    1a1c:	a5 ef       	ldi	r26, 0xF5	; 245
    1a1e:	ea 16       	cp	r14, r26
    1a20:	af ef       	ldi	r26, 0xFF	; 255
    1a22:	fa 06       	cpc	r15, r26
    1a24:	a0 e0       	ldi	r26, 0x00	; 0
    1a26:	0a 07       	cpc	r16, r26
    1a28:	a0 e0       	ldi	r26, 0x00	; 0
    1a2a:	1a 07       	cpc	r17, r26
    1a2c:	28 f4       	brcc	.+10     	; 0x1a38 <fat_open+0x1ae>
    1a2e:	86 e0       	ldi	r24, 0x06	; 6
    1a30:	ef a1       	ldd	r30, Y+39	; 0x27
    1a32:	f8 a5       	ldd	r31, Y+40	; 0x28
    1a34:	80 87       	std	Z+8, r24	; 0x08
    1a36:	05 c0       	rjmp	.+10     	; 0x1a42 <fat_open+0x1b8>
    1a38:	8b e0       	ldi	r24, 0x0B	; 11
    1a3a:	af a1       	ldd	r26, Y+39	; 0x27
    1a3c:	b8 a5       	ldd	r27, Y+40	; 0x28
    1a3e:	18 96       	adiw	r26, 0x08	; 8
    1a40:	8c 93       	st	X, r24
    1a42:	88 e1       	ldi	r24, 0x18	; 24
    1a44:	ec e4       	ldi	r30, 0x4C	; 76
    1a46:	f2 e0       	ldi	r31, 0x02	; 2
    1a48:	df 01       	movw	r26, r30
    1a4a:	1d 92       	st	X+, r1
    1a4c:	8a 95       	dec	r24
    1a4e:	e9 f7       	brne	.-6      	; 0x1a4a <fat_open+0x1c0>
    1a50:	ea a1       	ldd	r30, Y+34	; 0x22
    1a52:	fb a1       	ldd	r31, Y+35	; 0x23
    1a54:	5f 01       	movw	r10, r30
    1a56:	cc 24       	eor	r12, r12
    1a58:	dd 24       	eor	r13, r13
    1a5a:	c4 01       	movw	r24, r8
    1a5c:	b3 01       	movw	r22, r6
    1a5e:	a6 01       	movw	r20, r12
    1a60:	95 01       	movw	r18, r10
    1a62:	0e 94 97 24 	call	0x492e	; 0x492e <__mulsi3>
    1a66:	60 93 4c 02 	sts	0x024C, r22
    1a6a:	70 93 4d 02 	sts	0x024D, r23
    1a6e:	80 93 4e 02 	sts	0x024E, r24
    1a72:	90 93 4f 02 	sts	0x024F, r25
    1a76:	c6 01       	movw	r24, r12
    1a78:	b5 01       	movw	r22, r10
    1a7a:	2e 8d       	ldd	r18, Y+30	; 0x1e
    1a7c:	3f 8d       	ldd	r19, Y+31	; 0x1f
    1a7e:	48 a1       	ldd	r20, Y+32	; 0x20
    1a80:	59 a1       	ldd	r21, Y+33	; 0x21
    1a82:	0e 94 97 24 	call	0x492e	; 0x492e <__mulsi3>
    1a86:	26 0e       	add	r2, r22
    1a88:	37 1e       	adc	r3, r23
    1a8a:	48 1e       	adc	r4, r24
    1a8c:	59 1e       	adc	r5, r25
    1a8e:	20 92 50 02 	sts	0x0250, r2
    1a92:	30 92 51 02 	sts	0x0251, r3
    1a96:	40 92 52 02 	sts	0x0252, r4
    1a9a:	50 92 53 02 	sts	0x0253, r5
    1a9e:	af a1       	ldd	r26, Y+39	; 0x27
    1aa0:	b8 a5       	ldd	r27, Y+40	; 0x28
    1aa2:	18 96       	adiw	r26, 0x08	; 8
    1aa4:	8c 91       	ld	r24, X
    1aa6:	86 30       	cpi	r24, 0x06	; 6
    1aa8:	29 f0       	breq	.+10     	; 0x1ab4 <fat_open+0x22a>
    1aaa:	64 e0       	ldi	r22, 0x04	; 4
    1aac:	70 e0       	ldi	r23, 0x00	; 0
    1aae:	80 e0       	ldi	r24, 0x00	; 0
    1ab0:	90 e0       	ldi	r25, 0x00	; 0
    1ab2:	04 c0       	rjmp	.+8      	; 0x1abc <fat_open+0x232>
    1ab4:	62 e0       	ldi	r22, 0x02	; 2
    1ab6:	70 e0       	ldi	r23, 0x00	; 0
    1ab8:	80 e0       	ldi	r24, 0x00	; 0
    1aba:	90 e0       	ldi	r25, 0x00	; 0
    1abc:	22 e0       	ldi	r18, 0x02	; 2
    1abe:	30 e0       	ldi	r19, 0x00	; 0
    1ac0:	40 e0       	ldi	r20, 0x00	; 0
    1ac2:	50 e0       	ldi	r21, 0x00	; 0
    1ac4:	e2 0e       	add	r14, r18
    1ac6:	f3 1e       	adc	r15, r19
    1ac8:	04 1f       	adc	r16, r20
    1aca:	15 1f       	adc	r17, r21
    1acc:	a8 01       	movw	r20, r16
    1ace:	97 01       	movw	r18, r14
    1ad0:	0e 94 97 24 	call	0x492e	; 0x492e <__mulsi3>
    1ad4:	60 93 54 02 	sts	0x0254, r22
    1ad8:	70 93 55 02 	sts	0x0255, r23
    1adc:	80 93 56 02 	sts	0x0256, r24
    1ae0:	90 93 57 02 	sts	0x0257, r25
    1ae4:	4a a1       	ldd	r20, Y+34	; 0x22
    1ae6:	5b a1       	ldd	r21, Y+35	; 0x23
    1ae8:	50 93 59 02 	sts	0x0259, r21
    1aec:	40 93 58 02 	sts	0x0258, r20
    1af0:	5c a1       	ldd	r21, Y+36	; 0x24
    1af2:	85 2f       	mov	r24, r21
    1af4:	90 e0       	ldi	r25, 0x00	; 0
    1af6:	dc 01       	movw	r26, r24
    1af8:	ea a1       	ldd	r30, Y+34	; 0x22
    1afa:	fb a1       	ldd	r31, Y+35	; 0x23
    1afc:	ae 9f       	mul	r26, r30
    1afe:	c0 01       	movw	r24, r0
    1b00:	af 9f       	mul	r26, r31
    1b02:	90 0d       	add	r25, r0
    1b04:	be 9f       	mul	r27, r30
    1b06:	90 0d       	add	r25, r0
    1b08:	11 24       	eor	r1, r1
    1b0a:	90 93 5b 02 	sts	0x025B, r25
    1b0e:	80 93 5a 02 	sts	0x025A, r24
    1b12:	6a 8d       	ldd	r22, Y+26	; 0x1a
    1b14:	7b 8d       	ldd	r23, Y+27	; 0x1b
    1b16:	8c 8d       	ldd	r24, Y+28	; 0x1c
    1b18:	9d 8d       	ldd	r25, Y+29	; 0x1d
    1b1a:	a6 01       	movw	r20, r12
    1b1c:	95 01       	movw	r18, r10
    1b1e:	0e 94 97 24 	call	0x492e	; 0x492e <__mulsi3>
    1b22:	20 91 50 02 	lds	r18, 0x0250
    1b26:	30 91 51 02 	lds	r19, 0x0251
    1b2a:	40 91 52 02 	lds	r20, 0x0252
    1b2e:	50 91 53 02 	lds	r21, 0x0253
    1b32:	62 0f       	add	r22, r18
    1b34:	73 1f       	adc	r23, r19
    1b36:	84 1f       	adc	r24, r20
    1b38:	95 1f       	adc	r25, r21
    1b3a:	60 93 60 02 	sts	0x0260, r22
    1b3e:	70 93 61 02 	sts	0x0261, r23
    1b42:	80 93 62 02 	sts	0x0262, r24
    1b46:	90 93 63 02 	sts	0x0263, r25
    1b4a:	ad a1       	ldd	r26, Y+37	; 0x25
    1b4c:	be a1       	ldd	r27, Y+38	; 0x26
    1b4e:	9d 01       	movw	r18, r26
    1b50:	40 e0       	ldi	r20, 0x00	; 0
    1b52:	50 e0       	ldi	r21, 0x00	; 0
    1b54:	b5 e0       	ldi	r27, 0x05	; 5
    1b56:	22 0f       	add	r18, r18
    1b58:	33 1f       	adc	r19, r19
    1b5a:	44 1f       	adc	r20, r20
    1b5c:	55 1f       	adc	r21, r21
    1b5e:	ba 95       	dec	r27
    1b60:	d1 f7       	brne	.-12     	; 0x1b56 <fat_open+0x2cc>
    1b62:	62 0f       	add	r22, r18
    1b64:	73 1f       	adc	r23, r19
    1b66:	84 1f       	adc	r24, r20
    1b68:	95 1f       	adc	r25, r21
    1b6a:	60 93 5c 02 	sts	0x025C, r22
    1b6e:	70 93 5d 02 	sts	0x025D, r23
    1b72:	80 93 5e 02 	sts	0x025E, r24
    1b76:	90 93 5f 02 	sts	0x025F, r25
    1b7a:	2a e4       	ldi	r18, 0x4A	; 74
    1b7c:	32 e0       	ldi	r19, 0x02	; 2
    1b7e:	02 c0       	rjmp	.+4      	; 0x1b84 <fat_open+0x2fa>
    1b80:	20 e0       	ldi	r18, 0x00	; 0
    1b82:	30 e0       	ldi	r19, 0x00	; 0
    1b84:	c9 01       	movw	r24, r18
    1b86:	a8 96       	adiw	r28, 0x28	; 40
    1b88:	0f b6       	in	r0, 0x3f	; 63
    1b8a:	f8 94       	cli
    1b8c:	de bf       	out	0x3e, r29	; 62
    1b8e:	0f be       	out	0x3f, r0	; 63
    1b90:	cd bf       	out	0x3d, r28	; 61
    1b92:	cf 91       	pop	r28
    1b94:	df 91       	pop	r29
    1b96:	1f 91       	pop	r17
    1b98:	0f 91       	pop	r16
    1b9a:	ff 90       	pop	r15
    1b9c:	ef 90       	pop	r14
    1b9e:	df 90       	pop	r13
    1ba0:	cf 90       	pop	r12
    1ba2:	bf 90       	pop	r11
    1ba4:	af 90       	pop	r10
    1ba6:	9f 90       	pop	r9
    1ba8:	8f 90       	pop	r8
    1baa:	7f 90       	pop	r7
    1bac:	6f 90       	pop	r6
    1bae:	5f 90       	pop	r5
    1bb0:	4f 90       	pop	r4
    1bb2:	3f 90       	pop	r3
    1bb4:	2f 90       	pop	r2
    1bb6:	08 95       	ret
    1bb8:	80 91 4a 02 	lds	r24, 0x024A
    1bbc:	90 91 4b 02 	lds	r25, 0x024B
    1bc0:	89 2b       	or	r24, r25
    1bc2:	f1 f6       	brne	.-68     	; 0x1b80 <fat_open+0x2f6>
    1bc4:	91 ce       	rjmp	.-734    	; 0x18e8 <fat_open+0x5e>
    1bc6:	10 92 4b 02 	sts	0x024B, r1
    1bca:	10 92 4a 02 	sts	0x024A, r1
    1bce:	d8 cf       	rjmp	.-80     	; 0x1b80 <fat_open+0x2f6>

00001bd0 <fat_find_offset_for_dir_entry>:
    1bd0:	2f 92       	push	r2
    1bd2:	3f 92       	push	r3
    1bd4:	4f 92       	push	r4
    1bd6:	5f 92       	push	r5
    1bd8:	6f 92       	push	r6
    1bda:	7f 92       	push	r7
    1bdc:	8f 92       	push	r8
    1bde:	9f 92       	push	r9
    1be0:	af 92       	push	r10
    1be2:	bf 92       	push	r11
    1be4:	cf 92       	push	r12
    1be6:	df 92       	push	r13
    1be8:	ef 92       	push	r14
    1bea:	ff 92       	push	r15
    1bec:	0f 93       	push	r16
    1bee:	1f 93       	push	r17
    1bf0:	df 93       	push	r29
    1bf2:	cf 93       	push	r28
    1bf4:	00 d0       	rcall	.+0      	; 0x1bf6 <fat_find_offset_for_dir_entry+0x26>
    1bf6:	0f 92       	push	r0
    1bf8:	cd b7       	in	r28, 0x3d	; 61
    1bfa:	de b7       	in	r29, 0x3e	; 62
    1bfc:	1c 01       	movw	r2, r24
    1bfe:	9b 01       	movw	r18, r22
    1c00:	00 97       	sbiw	r24, 0x00	; 0
    1c02:	09 f4       	brne	.+2      	; 0x1c06 <fat_find_offset_for_dir_entry+0x36>
    1c04:	d2 c0       	rjmp	.+420    	; 0x1daa <fat_find_offset_for_dir_entry+0x1da>
    1c06:	41 15       	cp	r20, r1
    1c08:	51 05       	cpc	r21, r1
    1c0a:	09 f4       	brne	.+2      	; 0x1c0e <fat_find_offset_for_dir_entry+0x3e>
    1c0c:	ce c0       	rjmp	.+412    	; 0x1daa <fat_find_offset_for_dir_entry+0x1da>
    1c0e:	fa 01       	movw	r30, r20
    1c10:	01 90       	ld	r0, Z+
    1c12:	00 20       	and	r0, r0
    1c14:	e9 f7       	brne	.-6      	; 0x1c10 <fat_find_offset_for_dir_entry+0x40>
    1c16:	e4 1b       	sub	r30, r20
    1c18:	f5 0b       	sbc	r31, r21
    1c1a:	cf 01       	movw	r24, r30
    1c1c:	0b 96       	adiw	r24, 0x0b	; 11
    1c1e:	6d e0       	ldi	r22, 0x0D	; 13
    1c20:	70 e0       	ldi	r23, 0x00	; 0
    1c22:	0e 94 b6 24 	call	0x496c	; 0x496c <__udivmodhi4>
    1c26:	86 2f       	mov	r24, r22
    1c28:	8f 5f       	subi	r24, 0xFF	; 255
    1c2a:	8b 83       	std	Y+3, r24	; 0x03
    1c2c:	d9 01       	movw	r26, r18
    1c2e:	93 96       	adiw	r26, 0x23	; 35
    1c30:	4d 90       	ld	r4, X+
    1c32:	5c 90       	ld	r5, X
    1c34:	94 97       	sbiw	r26, 0x24	; 36
    1c36:	41 14       	cp	r4, r1
    1c38:	51 04       	cpc	r5, r1
    1c3a:	51 f0       	breq	.+20     	; 0x1c50 <fat_find_offset_for_dir_entry+0x80>
    1c3c:	aa 24       	eor	r10, r10
    1c3e:	bb 24       	eor	r11, r11
    1c40:	65 01       	movw	r12, r10
    1c42:	ee 24       	eor	r14, r14
    1c44:	ff 24       	eor	r15, r15
    1c46:	87 01       	movw	r16, r14
    1c48:	66 24       	eor	r6, r6
    1c4a:	77 24       	eor	r7, r7
    1c4c:	43 01       	movw	r8, r6
    1c4e:	0b c0       	rjmp	.+22     	; 0x1c66 <fat_find_offset_for_dir_entry+0x96>
    1c50:	f1 01       	movw	r30, r2
    1c52:	e6 88       	ldd	r14, Z+22	; 0x16
    1c54:	f7 88       	ldd	r15, Z+23	; 0x17
    1c56:	00 8d       	ldd	r16, Z+24	; 0x18
    1c58:	11 8d       	ldd	r17, Z+25	; 0x19
    1c5a:	62 88       	ldd	r6, Z+18	; 0x12
    1c5c:	73 88       	ldd	r7, Z+19	; 0x13
    1c5e:	84 88       	ldd	r8, Z+20	; 0x14
    1c60:	95 88       	ldd	r9, Z+21	; 0x15
    1c62:	57 01       	movw	r10, r14
    1c64:	68 01       	movw	r12, r16
    1c66:	1a 82       	std	Y+2, r1	; 0x02
    1c68:	e6 14       	cp	r14, r6
    1c6a:	f7 04       	cpc	r15, r7
    1c6c:	08 05       	cpc	r16, r8
    1c6e:	19 05       	cpc	r17, r9
    1c70:	09 f0       	breq	.+2      	; 0x1c74 <fat_find_offset_for_dir_entry+0xa4>
    1c72:	6e c0       	rjmp	.+220    	; 0x1d50 <fat_find_offset_for_dir_entry+0x180>
    1c74:	41 14       	cp	r4, r1
    1c76:	51 04       	cpc	r5, r1
    1c78:	09 f4       	brne	.+2      	; 0x1c7c <fat_find_offset_for_dir_entry+0xac>
    1c7a:	97 c0       	rjmp	.+302    	; 0x1daa <fat_find_offset_for_dir_entry+0x1da>
    1c7c:	e1 14       	cp	r14, r1
    1c7e:	f1 04       	cpc	r15, r1
    1c80:	01 05       	cpc	r16, r1
    1c82:	11 05       	cpc	r17, r1
    1c84:	89 f1       	breq	.+98     	; 0x1ce8 <fat_find_offset_for_dir_entry+0x118>
    1c86:	c1 01       	movw	r24, r2
    1c88:	b2 01       	movw	r22, r4
    1c8a:	0e 94 86 05 	call	0xb0c	; 0xb0c <fat_get_next_cluster>
    1c8e:	00 97       	sbiw	r24, 0x00	; 0
    1c90:	51 f5       	brne	.+84     	; 0x1ce6 <fat_find_offset_for_dir_entry+0x116>
    1c92:	c1 01       	movw	r24, r2
    1c94:	b2 01       	movw	r22, r4
    1c96:	41 e0       	ldi	r20, 0x01	; 1
    1c98:	50 e0       	ldi	r21, 0x00	; 0
    1c9a:	0e 94 3c 06 	call	0xc78	; 0xc78 <fat_append_clusters>
    1c9e:	8c 01       	movw	r16, r24
    1ca0:	00 97       	sbiw	r24, 0x00	; 0
    1ca2:	09 f4       	brne	.+2      	; 0x1ca6 <fat_find_offset_for_dir_entry+0xd6>
    1ca4:	82 c0       	rjmp	.+260    	; 0x1daa <fat_find_offset_for_dir_entry+0x1da>
    1ca6:	02 50       	subi	r16, 0x02	; 2
    1ca8:	10 40       	sbci	r17, 0x00	; 0
    1caa:	b8 01       	movw	r22, r16
    1cac:	80 e0       	ldi	r24, 0x00	; 0
    1cae:	90 e0       	ldi	r25, 0x00	; 0
    1cb0:	0e 5f       	subi	r16, 0xFE	; 254
    1cb2:	1f 4f       	sbci	r17, 0xFF	; 255
    1cb4:	d1 01       	movw	r26, r2
    1cb6:	50 96       	adiw	r26, 0x10	; 16
    1cb8:	2d 91       	ld	r18, X+
    1cba:	3c 91       	ld	r19, X
    1cbc:	51 97       	sbiw	r26, 0x11	; 17
    1cbe:	40 e0       	ldi	r20, 0x00	; 0
    1cc0:	50 e0       	ldi	r21, 0x00	; 0
    1cc2:	0e 94 97 24 	call	0x492e	; 0x492e <__mulsi3>
    1cc6:	5b 01       	movw	r10, r22
    1cc8:	6c 01       	movw	r12, r24
    1cca:	f1 01       	movw	r30, r2
    1ccc:	82 89       	ldd	r24, Z+18	; 0x12
    1cce:	93 89       	ldd	r25, Z+19	; 0x13
    1cd0:	a4 89       	ldd	r26, Z+20	; 0x14
    1cd2:	b5 89       	ldd	r27, Z+21	; 0x15
    1cd4:	a8 0e       	add	r10, r24
    1cd6:	b9 1e       	adc	r11, r25
    1cd8:	ca 1e       	adc	r12, r26
    1cda:	db 1e       	adc	r13, r27
    1cdc:	c1 01       	movw	r24, r2
    1cde:	b8 01       	movw	r22, r16
    1ce0:	0e 94 df 09 	call	0x13be	; 0x13be <fat_clear_cluster>
    1ce4:	65 c0       	rjmp	.+202    	; 0x1db0 <fat_find_offset_for_dir_entry+0x1e0>
    1ce6:	2c 01       	movw	r4, r24
    1ce8:	f2 e0       	ldi	r31, 0x02	; 2
    1cea:	4f 16       	cp	r4, r31
    1cec:	51 04       	cpc	r5, r1
    1cee:	20 f4       	brcc	.+8      	; 0x1cf8 <fat_find_offset_for_dir_entry+0x128>
    1cf0:	ee 24       	eor	r14, r14
    1cf2:	ff 24       	eor	r15, r15
    1cf4:	87 01       	movw	r16, r14
    1cf6:	1d c0       	rjmp	.+58     	; 0x1d32 <fat_find_offset_for_dir_entry+0x162>
    1cf8:	2e ef       	ldi	r18, 0xFE	; 254
    1cfa:	3f ef       	ldi	r19, 0xFF	; 255
    1cfc:	42 0e       	add	r4, r18
    1cfe:	53 1e       	adc	r5, r19
    1d00:	b2 01       	movw	r22, r4
    1d02:	80 e0       	ldi	r24, 0x00	; 0
    1d04:	90 e0       	ldi	r25, 0x00	; 0
    1d06:	a2 e0       	ldi	r26, 0x02	; 2
    1d08:	b0 e0       	ldi	r27, 0x00	; 0
    1d0a:	4a 0e       	add	r4, r26
    1d0c:	5b 1e       	adc	r5, r27
    1d0e:	f1 01       	movw	r30, r2
    1d10:	20 89       	ldd	r18, Z+16	; 0x10
    1d12:	31 89       	ldd	r19, Z+17	; 0x11
    1d14:	40 e0       	ldi	r20, 0x00	; 0
    1d16:	50 e0       	ldi	r21, 0x00	; 0
    1d18:	0e 94 97 24 	call	0x492e	; 0x492e <__mulsi3>
    1d1c:	7b 01       	movw	r14, r22
    1d1e:	8c 01       	movw	r16, r24
    1d20:	f1 01       	movw	r30, r2
    1d22:	82 89       	ldd	r24, Z+18	; 0x12
    1d24:	93 89       	ldd	r25, Z+19	; 0x13
    1d26:	a4 89       	ldd	r26, Z+20	; 0x14
    1d28:	b5 89       	ldd	r27, Z+21	; 0x15
    1d2a:	e8 0e       	add	r14, r24
    1d2c:	f9 1e       	adc	r15, r25
    1d2e:	0a 1f       	adc	r16, r26
    1d30:	1b 1f       	adc	r17, r27
    1d32:	d1 01       	movw	r26, r2
    1d34:	50 96       	adiw	r26, 0x10	; 16
    1d36:	8d 91       	ld	r24, X+
    1d38:	9c 91       	ld	r25, X
    1d3a:	51 97       	sbiw	r26, 0x11	; 17
    1d3c:	3c 01       	movw	r6, r24
    1d3e:	88 24       	eor	r8, r8
    1d40:	99 24       	eor	r9, r9
    1d42:	6e 0c       	add	r6, r14
    1d44:	7f 1c       	adc	r7, r15
    1d46:	80 1e       	adc	r8, r16
    1d48:	91 1e       	adc	r9, r17
    1d4a:	57 01       	movw	r10, r14
    1d4c:	68 01       	movw	r12, r16
    1d4e:	1a 82       	std	Y+2, r1	; 0x02
    1d50:	d1 01       	movw	r26, r2
    1d52:	ed 91       	ld	r30, X+
    1d54:	fc 91       	ld	r31, X
    1d56:	01 90       	ld	r0, Z+
    1d58:	f0 81       	ld	r31, Z
    1d5a:	e0 2d       	mov	r30, r0
    1d5c:	c8 01       	movw	r24, r16
    1d5e:	b7 01       	movw	r22, r14
    1d60:	ae 01       	movw	r20, r28
    1d62:	4f 5f       	subi	r20, 0xFF	; 255
    1d64:	5f 4f       	sbci	r21, 0xFF	; 255
    1d66:	21 e0       	ldi	r18, 0x01	; 1
    1d68:	30 e0       	ldi	r19, 0x00	; 0
    1d6a:	09 95       	icall
    1d6c:	88 23       	and	r24, r24
    1d6e:	e9 f0       	breq	.+58     	; 0x1daa <fat_find_offset_for_dir_entry+0x1da>
    1d70:	89 81       	ldd	r24, Y+1	; 0x01
    1d72:	85 3e       	cpi	r24, 0xE5	; 229
    1d74:	11 f0       	breq	.+4      	; 0x1d7a <fat_find_offset_for_dir_entry+0x1aa>
    1d76:	88 23       	and	r24, r24
    1d78:	79 f4       	brne	.+30     	; 0x1d98 <fat_find_offset_for_dir_entry+0x1c8>
    1d7a:	ba 81       	ldd	r27, Y+2	; 0x02
    1d7c:	bf 5f       	subi	r27, 0xFF	; 255
    1d7e:	ba 83       	std	Y+2, r27	; 0x02
    1d80:	eb 81       	ldd	r30, Y+3	; 0x03
    1d82:	be 17       	cp	r27, r30
    1d84:	a8 f4       	brcc	.+42     	; 0x1db0 <fat_find_offset_for_dir_entry+0x1e0>
    1d86:	80 e2       	ldi	r24, 0x20	; 32
    1d88:	90 e0       	ldi	r25, 0x00	; 0
    1d8a:	a0 e0       	ldi	r26, 0x00	; 0
    1d8c:	b0 e0       	ldi	r27, 0x00	; 0
    1d8e:	e8 0e       	add	r14, r24
    1d90:	f9 1e       	adc	r15, r25
    1d92:	0a 1f       	adc	r16, r26
    1d94:	1b 1f       	adc	r17, r27
    1d96:	68 cf       	rjmp	.-304    	; 0x1c68 <fat_find_offset_for_dir_entry+0x98>
    1d98:	80 e2       	ldi	r24, 0x20	; 32
    1d9a:	90 e0       	ldi	r25, 0x00	; 0
    1d9c:	a0 e0       	ldi	r26, 0x00	; 0
    1d9e:	b0 e0       	ldi	r27, 0x00	; 0
    1da0:	e8 0e       	add	r14, r24
    1da2:	f9 1e       	adc	r15, r25
    1da4:	0a 1f       	adc	r16, r26
    1da6:	1b 1f       	adc	r17, r27
    1da8:	5c cf       	rjmp	.-328    	; 0x1c62 <fat_find_offset_for_dir_entry+0x92>
    1daa:	aa 24       	eor	r10, r10
    1dac:	bb 24       	eor	r11, r11
    1dae:	65 01       	movw	r12, r10
    1db0:	b5 01       	movw	r22, r10
    1db2:	c6 01       	movw	r24, r12
    1db4:	0f 90       	pop	r0
    1db6:	0f 90       	pop	r0
    1db8:	0f 90       	pop	r0
    1dba:	cf 91       	pop	r28
    1dbc:	df 91       	pop	r29
    1dbe:	1f 91       	pop	r17
    1dc0:	0f 91       	pop	r16
    1dc2:	ff 90       	pop	r15
    1dc4:	ef 90       	pop	r14
    1dc6:	df 90       	pop	r13
    1dc8:	cf 90       	pop	r12
    1dca:	bf 90       	pop	r11
    1dcc:	af 90       	pop	r10
    1dce:	9f 90       	pop	r9
    1dd0:	8f 90       	pop	r8
    1dd2:	7f 90       	pop	r7
    1dd4:	6f 90       	pop	r6
    1dd6:	5f 90       	pop	r5
    1dd8:	4f 90       	pop	r4
    1dda:	3f 90       	pop	r3
    1ddc:	2f 90       	pop	r2
    1dde:	08 95       	ret

00001de0 <fat_write_dir_entry>:
    1de0:	2f 92       	push	r2
    1de2:	3f 92       	push	r3
    1de4:	4f 92       	push	r4
    1de6:	5f 92       	push	r5
    1de8:	6f 92       	push	r6
    1dea:	7f 92       	push	r7
    1dec:	8f 92       	push	r8
    1dee:	9f 92       	push	r9
    1df0:	af 92       	push	r10
    1df2:	bf 92       	push	r11
    1df4:	cf 92       	push	r12
    1df6:	df 92       	push	r13
    1df8:	ef 92       	push	r14
    1dfa:	ff 92       	push	r15
    1dfc:	0f 93       	push	r16
    1dfe:	1f 93       	push	r17
    1e00:	df 93       	push	r29
    1e02:	cf 93       	push	r28
    1e04:	cd b7       	in	r28, 0x3d	; 61
    1e06:	de b7       	in	r29, 0x3e	; 62
    1e08:	a0 97       	sbiw	r28, 0x20	; 32
    1e0a:	0f b6       	in	r0, 0x3f	; 63
    1e0c:	f8 94       	cli
    1e0e:	de bf       	out	0x3e, r29	; 62
    1e10:	0f be       	out	0x3f, r0	; 63
    1e12:	cd bf       	out	0x3d, r28	; 61
    1e14:	fc 01       	movw	r30, r24
    1e16:	8b 01       	movw	r16, r22
    1e18:	00 97       	sbiw	r24, 0x00	; 0
    1e1a:	09 f4       	brne	.+2      	; 0x1e1e <fat_write_dir_entry+0x3e>
    1e1c:	26 c1       	rjmp	.+588    	; 0x206a <fat_write_dir_entry+0x28a>
    1e1e:	61 15       	cp	r22, r1
    1e20:	71 05       	cpc	r23, r1
    1e22:	09 f4       	brne	.+2      	; 0x1e26 <fat_write_dir_entry+0x46>
    1e24:	22 c1       	rjmp	.+580    	; 0x206a <fat_write_dir_entry+0x28a>
    1e26:	01 90       	ld	r0, Z+
    1e28:	f0 81       	ld	r31, Z
    1e2a:	e0 2d       	mov	r30, r0
    1e2c:	24 80       	ldd	r2, Z+4	; 0x04
    1e2e:	35 80       	ldd	r3, Z+5	; 0x05
    1e30:	db 01       	movw	r26, r22
    1e32:	97 96       	adiw	r26, 0x27	; 39
    1e34:	ad 90       	ld	r10, X+
    1e36:	bd 90       	ld	r11, X+
    1e38:	cd 90       	ld	r12, X+
    1e3a:	dc 90       	ld	r13, X
    1e3c:	9a 97       	sbiw	r26, 0x2a	; 42
    1e3e:	e6 2e       	mov	r14, r22
    1e40:	91 2e       	mov	r9, r17
    1e42:	fb 01       	movw	r30, r22
    1e44:	01 90       	ld	r0, Z+
    1e46:	00 20       	and	r0, r0
    1e48:	e9 f7       	brne	.-6      	; 0x1e44 <fat_write_dir_entry+0x64>
    1e4a:	31 97       	sbiw	r30, 0x01	; 1
    1e4c:	fe 2e       	mov	r15, r30
    1e4e:	f6 1a       	sub	r15, r22
    1e50:	8f 2d       	mov	r24, r15
    1e52:	90 e0       	ldi	r25, 0x00	; 0
    1e54:	0c 96       	adiw	r24, 0x0c	; 12
    1e56:	6d e0       	ldi	r22, 0x0D	; 13
    1e58:	70 e0       	ldi	r23, 0x00	; 0
    1e5a:	0e 94 ca 24 	call	0x4994	; 0x4994 <__divmodhi4>
    1e5e:	76 2e       	mov	r7, r22
    1e60:	ce 01       	movw	r24, r28
    1e62:	01 96       	adiw	r24, 0x01	; 1
    1e64:	60 e2       	ldi	r22, 0x20	; 32
    1e66:	70 e0       	ldi	r23, 0x00	; 0
    1e68:	4b e0       	ldi	r20, 0x0B	; 11
    1e6a:	50 e0       	ldi	r21, 0x00	; 0
    1e6c:	0e 94 3f 25 	call	0x4a7e	; 0x4a7e <memset>
    1e70:	c8 01       	movw	r24, r16
    1e72:	6e e2       	ldi	r22, 0x2E	; 46
    1e74:	70 e0       	ldi	r23, 0x00	; 0
    1e76:	0e 94 77 25 	call	0x4aee	; 0x4aee <strrchr>
    1e7a:	fc 01       	movw	r30, r24
    1e7c:	00 97       	sbiw	r24, 0x00	; 0
    1e7e:	e1 f0       	breq	.+56     	; 0x1eb8 <fat_write_dir_entry+0xd8>
    1e80:	9c 01       	movw	r18, r24
    1e82:	2f 5f       	subi	r18, 0xFF	; 255
    1e84:	3f 4f       	sbci	r19, 0xFF	; 255
    1e86:	81 81       	ldd	r24, Z+1	; 0x01
    1e88:	88 23       	and	r24, r24
    1e8a:	b1 f0       	breq	.+44     	; 0x1eb8 <fat_write_dir_entry+0xd8>
    1e8c:	d9 01       	movw	r26, r18
    1e8e:	0d 90       	ld	r0, X+
    1e90:	00 20       	and	r0, r0
    1e92:	e9 f7       	brne	.-6      	; 0x1e8e <fat_write_dir_entry+0xae>
    1e94:	11 97       	sbiw	r26, 0x01	; 1
    1e96:	a2 1b       	sub	r26, r18
    1e98:	b3 0b       	sbc	r27, r19
    1e9a:	8a 2f       	mov	r24, r26
    1e9c:	80 95       	com	r24
    1e9e:	f8 0e       	add	r15, r24
    1ea0:	be 01       	movw	r22, r28
    1ea2:	67 5f       	subi	r22, 0xF7	; 247
    1ea4:	7f 4f       	sbci	r23, 0xFF	; 255
    1ea6:	4a 2f       	mov	r20, r26
    1ea8:	a4 30       	cpi	r26, 0x04	; 4
    1eaa:	08 f0       	brcs	.+2      	; 0x1eae <fat_write_dir_entry+0xce>
    1eac:	43 e0       	ldi	r20, 0x03	; 3
    1eae:	cb 01       	movw	r24, r22
    1eb0:	b9 01       	movw	r22, r18
    1eb2:	50 e0       	ldi	r21, 0x00	; 0
    1eb4:	0e 94 36 25 	call	0x4a6c	; 0x4a6c <memcpy>
    1eb8:	ce 01       	movw	r24, r28
    1eba:	01 96       	adiw	r24, 0x01	; 1
    1ebc:	b8 e0       	ldi	r27, 0x08	; 8
    1ebe:	bf 15       	cp	r27, r15
    1ec0:	88 f0       	brcs	.+34     	; 0x1ee4 <fat_write_dir_entry+0x104>
    1ec2:	6e 2d       	mov	r22, r14
    1ec4:	79 2d       	mov	r23, r9
    1ec6:	4f 2d       	mov	r20, r15
    1ec8:	50 e0       	ldi	r21, 0x00	; 0
    1eca:	0e 94 36 25 	call	0x4a6c	; 0x4a6c <memcpy>
    1ece:	f8 01       	movw	r30, r16
    1ed0:	80 81       	ld	r24, Z
    1ed2:	8e 32       	cpi	r24, 0x2E	; 46
    1ed4:	31 f5       	brne	.+76     	; 0x1f22 <fat_write_dir_entry+0x142>
    1ed6:	81 81       	ldd	r24, Z+1	; 0x01
    1ed8:	8e 32       	cpi	r24, 0x2E	; 46
    1eda:	09 f4       	brne	.+2      	; 0x1ede <fat_write_dir_entry+0xfe>
    1edc:	82 81       	ldd	r24, Z+2	; 0x02
    1ede:	88 23       	and	r24, r24
    1ee0:	f9 f0       	breq	.+62     	; 0x1f20 <fat_write_dir_entry+0x140>
    1ee2:	1f c0       	rjmp	.+62     	; 0x1f22 <fat_write_dir_entry+0x142>
    1ee4:	dc 01       	movw	r26, r24
    1ee6:	8e 2d       	mov	r24, r14
    1ee8:	99 2d       	mov	r25, r9
    1eea:	9c 01       	movw	r18, r24
    1eec:	f9 01       	movw	r30, r18
    1eee:	88 e0       	ldi	r24, 0x08	; 8
    1ef0:	01 90       	ld	r0, Z+
    1ef2:	0d 92       	st	X+, r0
    1ef4:	81 50       	subi	r24, 0x01	; 1
    1ef6:	e1 f7       	brne	.-8      	; 0x1ef0 <fat_write_dir_entry+0x110>
    1ef8:	d8 01       	movw	r26, r16
    1efa:	91 96       	adiw	r26, 0x21	; 33
    1efc:	8c 91       	ld	r24, X
    1efe:	98 2f       	mov	r25, r24
    1f00:	92 95       	swap	r25
    1f02:	9f 70       	andi	r25, 0x0F	; 15
    1f04:	80 3a       	cpi	r24, 0xA0	; 160
    1f06:	10 f4       	brcc	.+4      	; 0x1f0c <fat_write_dir_entry+0x12c>
    1f08:	90 5d       	subi	r25, 0xD0	; 208
    1f0a:	01 c0       	rjmp	.+2      	; 0x1f0e <fat_write_dir_entry+0x12e>
    1f0c:	9f 59       	subi	r25, 0x9F	; 159
    1f0e:	8f 70       	andi	r24, 0x0F	; 15
    1f10:	8a 30       	cpi	r24, 0x0A	; 10
    1f12:	10 f4       	brcc	.+4      	; 0x1f18 <fat_write_dir_entry+0x138>
    1f14:	80 5d       	subi	r24, 0xD0	; 208
    1f16:	01 c0       	rjmp	.+2      	; 0x1f1a <fat_write_dir_entry+0x13a>
    1f18:	8f 59       	subi	r24, 0x9F	; 159
    1f1a:	9f 83       	std	Y+7, r25	; 0x07
    1f1c:	88 87       	std	Y+8, r24	; 0x08
    1f1e:	01 c0       	rjmp	.+2      	; 0x1f22 <fat_write_dir_entry+0x142>
    1f20:	77 24       	eor	r7, r7
    1f22:	89 81       	ldd	r24, Y+1	; 0x01
    1f24:	85 3e       	cpi	r24, 0xE5	; 229
    1f26:	11 f4       	brne	.+4      	; 0x1f2c <fat_write_dir_entry+0x14c>
    1f28:	85 e0       	ldi	r24, 0x05	; 5
    1f2a:	89 83       	std	Y+1, r24	; 0x01
    1f2c:	fc e0       	ldi	r31, 0x0C	; 12
    1f2e:	8f 2e       	mov	r8, r31
    1f30:	91 2c       	mov	r9, r1
    1f32:	8c 0e       	add	r8, r28
    1f34:	9d 1e       	adc	r9, r29
    1f36:	85 e1       	ldi	r24, 0x15	; 21
    1f38:	f4 01       	movw	r30, r8
    1f3a:	11 92       	st	Z+, r1
    1f3c:	8a 95       	dec	r24
    1f3e:	e9 f7       	brne	.-6      	; 0x1f3a <fat_write_dir_entry+0x15a>
    1f40:	d8 01       	movw	r26, r16
    1f42:	90 96       	adiw	r26, 0x20	; 32
    1f44:	8c 91       	ld	r24, X
    1f46:	90 97       	sbiw	r26, 0x20	; 32
    1f48:	8c 87       	std	Y+12, r24	; 0x0c
    1f4a:	91 96       	adiw	r26, 0x21	; 33
    1f4c:	8d 91       	ld	r24, X+
    1f4e:	9c 91       	ld	r25, X
    1f50:	92 97       	sbiw	r26, 0x22	; 34
    1f52:	9c 8f       	std	Y+28, r25	; 0x1c
    1f54:	8b 8f       	std	Y+27, r24	; 0x1b
    1f56:	93 96       	adiw	r26, 0x23	; 35
    1f58:	8d 91       	ld	r24, X+
    1f5a:	9d 91       	ld	r25, X+
    1f5c:	0d 90       	ld	r0, X+
    1f5e:	bc 91       	ld	r27, X
    1f60:	a0 2d       	mov	r26, r0
    1f62:	8d 8f       	std	Y+29, r24	; 0x1d
    1f64:	9e 8f       	std	Y+30, r25	; 0x1e
    1f66:	af 8f       	std	Y+31, r26	; 0x1f
    1f68:	b8 a3       	std	Y+32, r27	; 0x20
    1f6a:	67 2d       	mov	r22, r7
    1f6c:	70 e0       	ldi	r23, 0x00	; 0
    1f6e:	e5 e0       	ldi	r30, 0x05	; 5
    1f70:	66 0f       	add	r22, r22
    1f72:	77 1f       	adc	r23, r23
    1f74:	ea 95       	dec	r30
    1f76:	e1 f7       	brne	.-8      	; 0x1f70 <fat_write_dir_entry+0x190>
    1f78:	80 e0       	ldi	r24, 0x00	; 0
    1f7a:	90 e0       	ldi	r25, 0x00	; 0
    1f7c:	6a 0d       	add	r22, r10
    1f7e:	7b 1d       	adc	r23, r11
    1f80:	8c 1d       	adc	r24, r12
    1f82:	9d 1d       	adc	r25, r13
    1f84:	ae 01       	movw	r20, r28
    1f86:	4f 5f       	subi	r20, 0xFF	; 255
    1f88:	5f 4f       	sbci	r21, 0xFF	; 255
    1f8a:	20 e2       	ldi	r18, 0x20	; 32
    1f8c:	30 e0       	ldi	r19, 0x00	; 0
    1f8e:	f1 01       	movw	r30, r2
    1f90:	09 95       	icall
    1f92:	88 23       	and	r24, r24
    1f94:	09 f4       	brne	.+2      	; 0x1f98 <fat_write_dir_entry+0x1b8>
    1f96:	69 c0       	rjmp	.+210    	; 0x206a <fat_write_dir_entry+0x28a>
    1f98:	e9 80       	ldd	r14, Y+1	; 0x01
    1f9a:	fe 01       	movw	r30, r28
    1f9c:	32 96       	adiw	r30, 0x02	; 2
    1f9e:	94 01       	movw	r18, r8
    1fa0:	8e 2d       	mov	r24, r14
    1fa2:	86 95       	lsr	r24
    1fa4:	e7 94       	ror	r14
    1fa6:	ee 24       	eor	r14, r14
    1fa8:	e7 94       	ror	r14
    1faa:	e8 2a       	or	r14, r24
    1fac:	81 91       	ld	r24, Z+
    1fae:	e8 0e       	add	r14, r24
    1fb0:	e2 17       	cp	r30, r18
    1fb2:	f3 07       	cpc	r31, r19
    1fb4:	a9 f7       	brne	.-22     	; 0x1fa0 <fat_write_dir_entry+0x1c0>
    1fb6:	f7 2c       	mov	r15, r7
    1fb8:	4e 01       	movw	r8, r28
    1fba:	08 94       	sec
    1fbc:	81 1c       	adc	r8, r1
    1fbe:	91 1c       	adc	r9, r1
    1fc0:	7d e0       	ldi	r23, 0x0D	; 13
    1fc2:	47 2e       	mov	r4, r23
    1fc4:	51 2c       	mov	r5, r1
    1fc6:	6f e0       	ldi	r22, 0x0F	; 15
    1fc8:	66 2e       	mov	r6, r22
    1fca:	4a c0       	rjmp	.+148    	; 0x2060 <fat_write_dir_entry+0x280>
    1fcc:	c4 01       	movw	r24, r8
    1fce:	6f ef       	ldi	r22, 0xFF	; 255
    1fd0:	70 e0       	ldi	r23, 0x00	; 0
    1fd2:	40 e2       	ldi	r20, 0x20	; 32
    1fd4:	50 e0       	ldi	r21, 0x00	; 0
    1fd6:	0e 94 3f 25 	call	0x4a7e	; 0x4a7e <memset>
    1fda:	8f 2d       	mov	r24, r15
    1fdc:	90 e0       	ldi	r25, 0x00	; 0
    1fde:	01 97       	sbiw	r24, 0x01	; 1
    1fe0:	84 9d       	mul	r24, r4
    1fe2:	d0 01       	movw	r26, r0
    1fe4:	85 9d       	mul	r24, r5
    1fe6:	b0 0d       	add	r27, r0
    1fe8:	94 9d       	mul	r25, r4
    1fea:	b0 0d       	add	r27, r0
    1fec:	11 24       	eor	r1, r1
    1fee:	a0 0f       	add	r26, r16
    1ff0:	b1 1f       	adc	r27, r17
    1ff2:	91 e0       	ldi	r25, 0x01	; 1
    1ff4:	f4 01       	movw	r30, r8
    1ff6:	e9 0f       	add	r30, r25
    1ff8:	f1 1d       	adc	r31, r1
    1ffa:	8c 91       	ld	r24, X
    1ffc:	80 83       	st	Z, r24
    1ffe:	89 2f       	mov	r24, r25
    2000:	8f 5f       	subi	r24, 0xFF	; 255
    2002:	f4 01       	movw	r30, r8
    2004:	e8 0f       	add	r30, r24
    2006:	f1 1d       	adc	r31, r1
    2008:	10 82       	st	Z, r1
    200a:	9e 5f       	subi	r25, 0xFE	; 254
    200c:	9b 30       	cpi	r25, 0x0B	; 11
    200e:	19 f0       	breq	.+6      	; 0x2016 <fat_write_dir_entry+0x236>
    2010:	9a 31       	cpi	r25, 0x1A	; 26
    2012:	21 f4       	brne	.+8      	; 0x201c <fat_write_dir_entry+0x23c>
    2014:	02 c0       	rjmp	.+4      	; 0x201a <fat_write_dir_entry+0x23a>
    2016:	9e e0       	ldi	r25, 0x0E	; 14
    2018:	01 c0       	rjmp	.+2      	; 0x201c <fat_write_dir_entry+0x23c>
    201a:	9c e1       	ldi	r25, 0x1C	; 28
    201c:	8c 91       	ld	r24, X
    201e:	88 23       	and	r24, r24
    2020:	21 f0       	breq	.+8      	; 0x202a <fat_write_dir_entry+0x24a>
    2022:	9f 31       	cpi	r25, 0x1F	; 31
    2024:	10 f4       	brcc	.+4      	; 0x202a <fat_write_dir_entry+0x24a>
    2026:	11 96       	adiw	r26, 0x01	; 1
    2028:	e5 cf       	rjmp	.-54     	; 0x1ff4 <fat_write_dir_entry+0x214>
    202a:	f9 82       	std	Y+1, r15	; 0x01
    202c:	f7 14       	cp	r15, r7
    202e:	19 f4       	brne	.+6      	; 0x2036 <fat_write_dir_entry+0x256>
    2030:	8f 2d       	mov	r24, r15
    2032:	80 64       	ori	r24, 0x40	; 64
    2034:	89 83       	std	Y+1, r24	; 0x01
    2036:	6c 86       	std	Y+12, r6	; 0x0c
    2038:	ee 86       	std	Y+14, r14	; 0x0e
    203a:	1d 86       	std	Y+13, r1	; 0x0d
    203c:	1b 8e       	std	Y+27, r1	; 0x1b
    203e:	1c 8e       	std	Y+28, r1	; 0x1c
    2040:	c6 01       	movw	r24, r12
    2042:	b5 01       	movw	r22, r10
    2044:	a4 01       	movw	r20, r8
    2046:	20 e2       	ldi	r18, 0x20	; 32
    2048:	30 e0       	ldi	r19, 0x00	; 0
    204a:	f1 01       	movw	r30, r2
    204c:	09 95       	icall
    204e:	80 e2       	ldi	r24, 0x20	; 32
    2050:	90 e0       	ldi	r25, 0x00	; 0
    2052:	a0 e0       	ldi	r26, 0x00	; 0
    2054:	b0 e0       	ldi	r27, 0x00	; 0
    2056:	a8 0e       	add	r10, r24
    2058:	b9 1e       	adc	r11, r25
    205a:	ca 1e       	adc	r12, r26
    205c:	db 1e       	adc	r13, r27
    205e:	fa 94       	dec	r15
    2060:	ff 20       	and	r15, r15
    2062:	09 f0       	breq	.+2      	; 0x2066 <fat_write_dir_entry+0x286>
    2064:	b3 cf       	rjmp	.-154    	; 0x1fcc <fat_write_dir_entry+0x1ec>
    2066:	81 e0       	ldi	r24, 0x01	; 1
    2068:	01 c0       	rjmp	.+2      	; 0x206c <fat_write_dir_entry+0x28c>
    206a:	80 e0       	ldi	r24, 0x00	; 0
    206c:	a0 96       	adiw	r28, 0x20	; 32
    206e:	0f b6       	in	r0, 0x3f	; 63
    2070:	f8 94       	cli
    2072:	de bf       	out	0x3e, r29	; 62
    2074:	0f be       	out	0x3f, r0	; 63
    2076:	cd bf       	out	0x3d, r28	; 61
    2078:	cf 91       	pop	r28
    207a:	df 91       	pop	r29
    207c:	1f 91       	pop	r17
    207e:	0f 91       	pop	r16
    2080:	ff 90       	pop	r15
    2082:	ef 90       	pop	r14
    2084:	df 90       	pop	r13
    2086:	cf 90       	pop	r12
    2088:	bf 90       	pop	r11
    208a:	af 90       	pop	r10
    208c:	9f 90       	pop	r9
    208e:	8f 90       	pop	r8
    2090:	7f 90       	pop	r7
    2092:	6f 90       	pop	r6
    2094:	5f 90       	pop	r5
    2096:	4f 90       	pop	r4
    2098:	3f 90       	pop	r3
    209a:	2f 90       	pop	r2
    209c:	08 95       	ret

0000209e <fat_create_dir>:
    209e:	7f 92       	push	r7
    20a0:	8f 92       	push	r8
    20a2:	9f 92       	push	r9
    20a4:	af 92       	push	r10
    20a6:	bf 92       	push	r11
    20a8:	cf 92       	push	r12
    20aa:	df 92       	push	r13
    20ac:	ef 92       	push	r14
    20ae:	ff 92       	push	r15
    20b0:	0f 93       	push	r16
    20b2:	1f 93       	push	r17
    20b4:	cf 93       	push	r28
    20b6:	df 93       	push	r29
    20b8:	6c 01       	movw	r12, r24
    20ba:	5b 01       	movw	r10, r22
    20bc:	ea 01       	movw	r28, r20
    20be:	00 97       	sbiw	r24, 0x00	; 0
    20c0:	09 f4       	brne	.+2      	; 0x20c4 <fat_create_dir+0x26>
    20c2:	9d c0       	rjmp	.+314    	; 0x21fe <fat_create_dir+0x160>
    20c4:	61 15       	cp	r22, r1
    20c6:	71 05       	cpc	r23, r1
    20c8:	09 f4       	brne	.+2      	; 0x20cc <fat_create_dir+0x2e>
    20ca:	99 c0       	rjmp	.+306    	; 0x21fe <fat_create_dir+0x160>
    20cc:	fb 01       	movw	r30, r22
    20ce:	80 81       	ld	r24, Z
    20d0:	88 23       	and	r24, r24
    20d2:	09 f4       	brne	.+2      	; 0x20d6 <fat_create_dir+0x38>
    20d4:	94 c0       	rjmp	.+296    	; 0x21fe <fat_create_dir+0x160>
    20d6:	41 15       	cp	r20, r1
    20d8:	51 05       	cpc	r21, r1
    20da:	81 f4       	brne	.+32     	; 0x20fc <fat_create_dir+0x5e>
    20dc:	90 c0       	rjmp	.+288    	; 0x21fe <fat_create_dir+0x160>
    20de:	c5 01       	movw	r24, r10
    20e0:	68 2d       	mov	r22, r8
    20e2:	77 2d       	mov	r23, r7
    20e4:	0e 94 51 25 	call	0x4aa2	; 0x4aa2 <strcmp>
    20e8:	00 97       	sbiw	r24, 0x00	; 0
    20ea:	51 f4       	brne	.+20     	; 0x2100 <fat_create_dir+0x62>
    20ec:	f6 01       	movw	r30, r12
    20ee:	83 a1       	ldd	r24, Z+35	; 0x23
    20f0:	94 a1       	ldd	r25, Z+36	; 0x24
    20f2:	96 a7       	std	Z+46, r25	; 0x2e
    20f4:	85 a7       	std	Z+45, r24	; 0x2d
    20f6:	10 aa       	std	Z+48, r1	; 0x30
    20f8:	17 a6       	std	Z+47, r1	; 0x2f
    20fa:	81 c0       	rjmp	.+258    	; 0x21fe <fat_create_dir+0x160>
    20fc:	84 2e       	mov	r8, r20
    20fe:	7d 2e       	mov	r7, r29
    2100:	c6 01       	movw	r24, r12
    2102:	be 01       	movw	r22, r28
    2104:	0e 94 39 0a 	call	0x1472	; 0x1472 <fat_read_dir>
    2108:	88 23       	and	r24, r24
    210a:	49 f7       	brne	.-46     	; 0x20de <fat_create_dir+0x40>
    210c:	f6 01       	movw	r30, r12
    210e:	e0 80       	ld	r14, Z
    2110:	f1 80       	ldd	r15, Z+1	; 0x01
    2112:	c7 01       	movw	r24, r14
    2114:	60 e0       	ldi	r22, 0x00	; 0
    2116:	70 e0       	ldi	r23, 0x00	; 0
    2118:	41 e0       	ldi	r20, 0x01	; 1
    211a:	50 e0       	ldi	r21, 0x00	; 0
    211c:	0e 94 3c 06 	call	0xc78	; 0xc78 <fat_append_clusters>
    2120:	8c 01       	movw	r16, r24
    2122:	00 97       	sbiw	r24, 0x00	; 0
    2124:	09 f4       	brne	.+2      	; 0x2128 <fat_create_dir+0x8a>
    2126:	6b c0       	rjmp	.+214    	; 0x21fe <fat_create_dir+0x160>
    2128:	c7 01       	movw	r24, r14
    212a:	b8 01       	movw	r22, r16
    212c:	0e 94 df 09 	call	0x13be	; 0x13be <fat_clear_cluster>
    2130:	8b e2       	ldi	r24, 0x2B	; 43
    2132:	fe 01       	movw	r30, r28
    2134:	11 92       	st	Z+, r1
    2136:	8a 95       	dec	r24
    2138:	e9 f7       	brne	.-6      	; 0x2134 <fat_create_dir+0x96>
    213a:	80 e1       	ldi	r24, 0x10	; 16
    213c:	88 a3       	std	Y+32, r24	; 0x20
    213e:	02 50       	subi	r16, 0x02	; 2
    2140:	10 40       	sbci	r17, 0x00	; 0
    2142:	b8 01       	movw	r22, r16
    2144:	80 e0       	ldi	r24, 0x00	; 0
    2146:	90 e0       	ldi	r25, 0x00	; 0
    2148:	0e 5f       	subi	r16, 0xFE	; 254
    214a:	1f 4f       	sbci	r17, 0xFF	; 255
    214c:	f7 01       	movw	r30, r14
    214e:	20 89       	ldd	r18, Z+16	; 0x10
    2150:	31 89       	ldd	r19, Z+17	; 0x11
    2152:	40 e0       	ldi	r20, 0x00	; 0
    2154:	50 e0       	ldi	r21, 0x00	; 0
    2156:	0e 94 97 24 	call	0x492e	; 0x492e <__mulsi3>
    215a:	f7 01       	movw	r30, r14
    215c:	22 89       	ldd	r18, Z+18	; 0x12
    215e:	33 89       	ldd	r19, Z+19	; 0x13
    2160:	44 89       	ldd	r20, Z+20	; 0x14
    2162:	55 89       	ldd	r21, Z+21	; 0x15
    2164:	26 0f       	add	r18, r22
    2166:	37 1f       	adc	r19, r23
    2168:	48 1f       	adc	r20, r24
    216a:	59 1f       	adc	r21, r25
    216c:	2f a3       	std	Y+39, r18	; 0x27
    216e:	38 a7       	std	Y+40, r19	; 0x28
    2170:	49 a7       	std	Y+41, r20	; 0x29
    2172:	5a a7       	std	Y+42, r21	; 0x2a
    2174:	ae e2       	ldi	r26, 0x2E	; 46
    2176:	9a 2e       	mov	r9, r26
    2178:	98 82       	st	Y, r9
    217a:	1a a3       	std	Y+34, r17	; 0x22
    217c:	09 a3       	std	Y+33, r16	; 0x21
    217e:	c7 01       	movw	r24, r14
    2180:	be 01       	movw	r22, r28
    2182:	0e 94 f0 0e 	call	0x1de0	; 0x1de0 <fat_write_dir_entry>
    2186:	88 23       	and	r24, r24
    2188:	b1 f1       	breq	.+108    	; 0x21f6 <fat_create_dir+0x158>
    218a:	8f a1       	ldd	r24, Y+39	; 0x27
    218c:	98 a5       	ldd	r25, Y+40	; 0x28
    218e:	a9 a5       	ldd	r26, Y+41	; 0x29
    2190:	ba a5       	ldd	r27, Y+42	; 0x2a
    2192:	80 96       	adiw	r24, 0x20	; 32
    2194:	a1 1d       	adc	r26, r1
    2196:	b1 1d       	adc	r27, r1
    2198:	8f a3       	std	Y+39, r24	; 0x27
    219a:	98 a7       	std	Y+40, r25	; 0x28
    219c:	a9 a7       	std	Y+41, r26	; 0x29
    219e:	ba a7       	std	Y+42, r27	; 0x2a
    21a0:	99 82       	std	Y+1, r9	; 0x01
    21a2:	f6 01       	movw	r30, r12
    21a4:	83 a1       	ldd	r24, Z+35	; 0x23
    21a6:	94 a1       	ldd	r25, Z+36	; 0x24
    21a8:	9a a3       	std	Y+34, r25	; 0x22
    21aa:	89 a3       	std	Y+33, r24	; 0x21
    21ac:	c7 01       	movw	r24, r14
    21ae:	be 01       	movw	r22, r28
    21b0:	0e 94 f0 0e 	call	0x1de0	; 0x1de0 <fat_write_dir_entry>
    21b4:	88 23       	and	r24, r24
    21b6:	f9 f0       	breq	.+62     	; 0x21f6 <fat_create_dir+0x158>
    21b8:	88 2d       	mov	r24, r8
    21ba:	97 2d       	mov	r25, r7
    21bc:	b5 01       	movw	r22, r10
    21be:	4f e1       	ldi	r20, 0x1F	; 31
    21c0:	50 e0       	ldi	r21, 0x00	; 0
    21c2:	0e 94 68 25 	call	0x4ad0	; 0x4ad0 <strncpy>
    21c6:	1a a3       	std	Y+34, r17	; 0x22
    21c8:	09 a3       	std	Y+33, r16	; 0x21
    21ca:	c7 01       	movw	r24, r14
    21cc:	b6 01       	movw	r22, r12
    21ce:	ae 01       	movw	r20, r28
    21d0:	0e 94 e8 0d 	call	0x1bd0	; 0x1bd0 <fat_find_offset_for_dir_entry>
    21d4:	6f a3       	std	Y+39, r22	; 0x27
    21d6:	78 a7       	std	Y+40, r23	; 0x28
    21d8:	89 a7       	std	Y+41, r24	; 0x29
    21da:	9a a7       	std	Y+42, r25	; 0x2a
    21dc:	61 15       	cp	r22, r1
    21de:	71 05       	cpc	r23, r1
    21e0:	81 05       	cpc	r24, r1
    21e2:	91 05       	cpc	r25, r1
    21e4:	41 f0       	breq	.+16     	; 0x21f6 <fat_create_dir+0x158>
    21e6:	c7 01       	movw	r24, r14
    21e8:	be 01       	movw	r22, r28
    21ea:	0e 94 f0 0e 	call	0x1de0	; 0x1de0 <fat_write_dir_entry>
    21ee:	88 23       	and	r24, r24
    21f0:	11 f0       	breq	.+4      	; 0x21f6 <fat_create_dir+0x158>
    21f2:	81 e0       	ldi	r24, 0x01	; 1
    21f4:	05 c0       	rjmp	.+10     	; 0x2200 <fat_create_dir+0x162>
    21f6:	c7 01       	movw	r24, r14
    21f8:	b8 01       	movw	r22, r16
    21fa:	0e 94 c6 05 	call	0xb8c	; 0xb8c <fat_free_clusters>
    21fe:	80 e0       	ldi	r24, 0x00	; 0
    2200:	df 91       	pop	r29
    2202:	cf 91       	pop	r28
    2204:	1f 91       	pop	r17
    2206:	0f 91       	pop	r16
    2208:	ff 90       	pop	r15
    220a:	ef 90       	pop	r14
    220c:	df 90       	pop	r13
    220e:	cf 90       	pop	r12
    2210:	bf 90       	pop	r11
    2212:	af 90       	pop	r10
    2214:	9f 90       	pop	r9
    2216:	8f 90       	pop	r8
    2218:	7f 90       	pop	r7
    221a:	08 95       	ret

0000221c <fat_create_file>:
    221c:	af 92       	push	r10
    221e:	bf 92       	push	r11
    2220:	cf 92       	push	r12
    2222:	df 92       	push	r13
    2224:	ef 92       	push	r14
    2226:	ff 92       	push	r15
    2228:	0f 93       	push	r16
    222a:	1f 93       	push	r17
    222c:	cf 93       	push	r28
    222e:	df 93       	push	r29
    2230:	8c 01       	movw	r16, r24
    2232:	7b 01       	movw	r14, r22
    2234:	ea 01       	movw	r28, r20
    2236:	00 97       	sbiw	r24, 0x00	; 0
    2238:	09 f4       	brne	.+2      	; 0x223c <fat_create_file+0x20>
    223a:	48 c0       	rjmp	.+144    	; 0x22cc <fat_create_file+0xb0>
    223c:	61 15       	cp	r22, r1
    223e:	71 05       	cpc	r23, r1
    2240:	09 f4       	brne	.+2      	; 0x2244 <fat_create_file+0x28>
    2242:	44 c0       	rjmp	.+136    	; 0x22cc <fat_create_file+0xb0>
    2244:	fb 01       	movw	r30, r22
    2246:	80 81       	ld	r24, Z
    2248:	88 23       	and	r24, r24
    224a:	09 f4       	brne	.+2      	; 0x224e <fat_create_file+0x32>
    224c:	3f c0       	rjmp	.+126    	; 0x22cc <fat_create_file+0xb0>
    224e:	41 15       	cp	r20, r1
    2250:	51 05       	cpc	r21, r1
    2252:	e1 f1       	breq	.+120    	; 0x22cc <fat_create_file+0xb0>
    2254:	b4 2e       	mov	r11, r20
    2256:	ad 2e       	mov	r10, r29
    2258:	c8 01       	movw	r24, r16
    225a:	be 01       	movw	r22, r28
    225c:	0e 94 39 0a 	call	0x1472	; 0x1472 <fat_read_dir>
    2260:	88 23       	and	r24, r24
    2262:	79 f0       	breq	.+30     	; 0x2282 <fat_create_file+0x66>
    2264:	c7 01       	movw	r24, r14
    2266:	6b 2d       	mov	r22, r11
    2268:	7a 2d       	mov	r23, r10
    226a:	0e 94 51 25 	call	0x4aa2	; 0x4aa2 <strcmp>
    226e:	00 97       	sbiw	r24, 0x00	; 0
    2270:	99 f7       	brne	.-26     	; 0x2258 <fat_create_file+0x3c>
    2272:	f8 01       	movw	r30, r16
    2274:	83 a1       	ldd	r24, Z+35	; 0x23
    2276:	94 a1       	ldd	r25, Z+36	; 0x24
    2278:	96 a7       	std	Z+46, r25	; 0x2e
    227a:	85 a7       	std	Z+45, r24	; 0x2d
    227c:	10 aa       	std	Z+48, r1	; 0x30
    227e:	17 a6       	std	Z+47, r1	; 0x2f
    2280:	25 c0       	rjmp	.+74     	; 0x22cc <fat_create_file+0xb0>
    2282:	f8 01       	movw	r30, r16
    2284:	c0 80       	ld	r12, Z
    2286:	d1 80       	ldd	r13, Z+1	; 0x01
    2288:	8b e2       	ldi	r24, 0x2B	; 43
    228a:	fe 01       	movw	r30, r28
    228c:	11 92       	st	Z+, r1
    228e:	8a 95       	dec	r24
    2290:	e9 f7       	brne	.-6      	; 0x228c <fat_create_file+0x70>
    2292:	8b 2d       	mov	r24, r11
    2294:	9a 2d       	mov	r25, r10
    2296:	b7 01       	movw	r22, r14
    2298:	4f e1       	ldi	r20, 0x1F	; 31
    229a:	50 e0       	ldi	r21, 0x00	; 0
    229c:	0e 94 68 25 	call	0x4ad0	; 0x4ad0 <strncpy>
    22a0:	c6 01       	movw	r24, r12
    22a2:	b8 01       	movw	r22, r16
    22a4:	ae 01       	movw	r20, r28
    22a6:	0e 94 e8 0d 	call	0x1bd0	; 0x1bd0 <fat_find_offset_for_dir_entry>
    22aa:	6f a3       	std	Y+39, r22	; 0x27
    22ac:	78 a7       	std	Y+40, r23	; 0x28
    22ae:	89 a7       	std	Y+41, r24	; 0x29
    22b0:	9a a7       	std	Y+42, r25	; 0x2a
    22b2:	61 15       	cp	r22, r1
    22b4:	71 05       	cpc	r23, r1
    22b6:	81 05       	cpc	r24, r1
    22b8:	91 05       	cpc	r25, r1
    22ba:	41 f0       	breq	.+16     	; 0x22cc <fat_create_file+0xb0>
    22bc:	c6 01       	movw	r24, r12
    22be:	be 01       	movw	r22, r28
    22c0:	0e 94 f0 0e 	call	0x1de0	; 0x1de0 <fat_write_dir_entry>
    22c4:	88 23       	and	r24, r24
    22c6:	19 f0       	breq	.+6      	; 0x22ce <fat_create_file+0xb2>
    22c8:	81 e0       	ldi	r24, 0x01	; 1
    22ca:	01 c0       	rjmp	.+2      	; 0x22ce <fat_create_file+0xb2>
    22cc:	80 e0       	ldi	r24, 0x00	; 0
    22ce:	df 91       	pop	r29
    22d0:	cf 91       	pop	r28
    22d2:	1f 91       	pop	r17
    22d4:	0f 91       	pop	r16
    22d6:	ff 90       	pop	r15
    22d8:	ef 90       	pop	r14
    22da:	df 90       	pop	r13
    22dc:	cf 90       	pop	r12
    22de:	bf 90       	pop	r11
    22e0:	af 90       	pop	r10
    22e2:	08 95       	ret

000022e4 <fat_resize_file>:
    22e4:	4f 92       	push	r4
    22e6:	5f 92       	push	r5
    22e8:	6f 92       	push	r6
    22ea:	7f 92       	push	r7
    22ec:	8f 92       	push	r8
    22ee:	9f 92       	push	r9
    22f0:	af 92       	push	r10
    22f2:	bf 92       	push	r11
    22f4:	cf 92       	push	r12
    22f6:	df 92       	push	r13
    22f8:	ef 92       	push	r14
    22fa:	ff 92       	push	r15
    22fc:	0f 93       	push	r16
    22fe:	1f 93       	push	r17
    2300:	df 93       	push	r29
    2302:	cf 93       	push	r28
    2304:	cd b7       	in	r28, 0x3d	; 61
    2306:	de b7       	in	r29, 0x3e	; 62
    2308:	2a 97       	sbiw	r28, 0x0a	; 10
    230a:	0f b6       	in	r0, 0x3f	; 63
    230c:	f8 94       	cli
    230e:	de bf       	out	0x3e, r29	; 62
    2310:	0f be       	out	0x3f, r0	; 63
    2312:	cd bf       	out	0x3d, r28	; 61
    2314:	2c 01       	movw	r4, r24
    2316:	5a 01       	movw	r10, r20
    2318:	6b 01       	movw	r12, r22
    231a:	00 97       	sbiw	r24, 0x00	; 0
    231c:	09 f4       	brne	.+2      	; 0x2320 <fat_resize_file+0x3c>
    231e:	e5 c0       	rjmp	.+458    	; 0x24ea <fat_resize_file+0x206>
    2320:	dc 01       	movw	r26, r24
    2322:	93 96       	adiw	r26, 0x23	; 35
    2324:	0d 91       	ld	r16, X+
    2326:	1c 91       	ld	r17, X
    2328:	94 97       	sbiw	r26, 0x24	; 36
    232a:	ed 91       	ld	r30, X+
    232c:	fc 91       	ld	r31, X
    232e:	20 89       	ldd	r18, Z+16	; 0x10
    2330:	31 89       	ldd	r19, Z+17	; 0x11
    2332:	01 15       	cp	r16, r1
    2334:	11 05       	cpc	r17, r1
    2336:	99 f0       	breq	.+38     	; 0x235e <fat_resize_file+0x7a>
    2338:	ab 82       	std	Y+3, r10	; 0x03
    233a:	bc 82       	std	Y+4, r11	; 0x04
    233c:	cd 82       	std	Y+5, r12	; 0x05
    233e:	de 82       	std	Y+6, r13	; 0x06
    2340:	39 01       	movw	r6, r18
    2342:	88 24       	eor	r8, r8
    2344:	99 24       	eor	r9, r9
    2346:	22 27       	eor	r18, r18
    2348:	33 27       	eor	r19, r19
    234a:	a9 01       	movw	r20, r18
    234c:	26 19       	sub	r18, r6
    234e:	37 09       	sbc	r19, r7
    2350:	48 09       	sbc	r20, r8
    2352:	59 09       	sbc	r21, r9
    2354:	2f 83       	std	Y+7, r18	; 0x07
    2356:	38 87       	std	Y+8, r19	; 0x08
    2358:	49 87       	std	Y+9, r20	; 0x09
    235a:	5a 87       	std	Y+10, r21	; 0x0a
    235c:	20 c0       	rjmp	.+64     	; 0x239e <fat_resize_file+0xba>
    235e:	41 15       	cp	r20, r1
    2360:	51 05       	cpc	r21, r1
    2362:	61 05       	cpc	r22, r1
    2364:	71 05       	cpc	r23, r1
    2366:	09 f4       	brne	.+2      	; 0x236a <fat_resize_file+0x86>
    2368:	a9 c0       	rjmp	.+338    	; 0x24bc <fat_resize_file+0x1d8>
    236a:	e6 cf       	rjmp	.-52     	; 0x2338 <fat_resize_file+0x54>
    236c:	d2 01       	movw	r26, r4
    236e:	8d 91       	ld	r24, X+
    2370:	9c 91       	ld	r25, X
    2372:	b8 01       	movw	r22, r16
    2374:	0e 94 86 05 	call	0xb0c	; 0xb0c <fat_get_next_cluster>
    2378:	00 97       	sbiw	r24, 0x00	; 0
    237a:	d9 f0       	breq	.+54     	; 0x23b2 <fat_resize_file+0xce>
    237c:	eb 80       	ldd	r14, Y+3	; 0x03
    237e:	fc 80       	ldd	r15, Y+4	; 0x04
    2380:	0d 81       	ldd	r16, Y+5	; 0x05
    2382:	1e 81       	ldd	r17, Y+6	; 0x06
    2384:	2f 81       	ldd	r18, Y+7	; 0x07
    2386:	38 85       	ldd	r19, Y+8	; 0x08
    2388:	49 85       	ldd	r20, Y+9	; 0x09
    238a:	5a 85       	ldd	r21, Y+10	; 0x0a
    238c:	e2 0e       	add	r14, r18
    238e:	f3 1e       	adc	r15, r19
    2390:	04 1f       	adc	r16, r20
    2392:	15 1f       	adc	r17, r21
    2394:	eb 82       	std	Y+3, r14	; 0x03
    2396:	fc 82       	std	Y+4, r15	; 0x04
    2398:	0d 83       	std	Y+5, r16	; 0x05
    239a:	1e 83       	std	Y+6, r17	; 0x06
    239c:	8c 01       	movw	r16, r24
    239e:	8b 81       	ldd	r24, Y+3	; 0x03
    23a0:	9c 81       	ldd	r25, Y+4	; 0x04
    23a2:	ad 81       	ldd	r26, Y+5	; 0x05
    23a4:	be 81       	ldd	r27, Y+6	; 0x06
    23a6:	68 16       	cp	r6, r24
    23a8:	79 06       	cpc	r7, r25
    23aa:	8a 06       	cpc	r8, r26
    23ac:	9b 06       	cpc	r9, r27
    23ae:	f0 f2       	brcs	.-68     	; 0x236c <fat_resize_file+0x88>
    23b0:	b4 c0       	rjmp	.+360    	; 0x251a <fat_resize_file+0x236>
    23b2:	78 01       	movw	r14, r16
    23b4:	6b 81       	ldd	r22, Y+3	; 0x03
    23b6:	7c 81       	ldd	r23, Y+4	; 0x04
    23b8:	8d 81       	ldd	r24, Y+5	; 0x05
    23ba:	9e 81       	ldd	r25, Y+6	; 0x06
    23bc:	66 0d       	add	r22, r6
    23be:	77 1d       	adc	r23, r7
    23c0:	88 1d       	adc	r24, r8
    23c2:	99 1d       	adc	r25, r9
    23c4:	61 50       	subi	r22, 0x01	; 1
    23c6:	70 40       	sbci	r23, 0x00	; 0
    23c8:	80 40       	sbci	r24, 0x00	; 0
    23ca:	90 40       	sbci	r25, 0x00	; 0
    23cc:	a4 01       	movw	r20, r8
    23ce:	93 01       	movw	r18, r6
    23d0:	0e 94 dd 24 	call	0x49ba	; 0x49ba <__udivmodsi4>
    23d4:	d2 01       	movw	r26, r4
    23d6:	8d 91       	ld	r24, X+
    23d8:	9c 91       	ld	r25, X
    23da:	b8 01       	movw	r22, r16
    23dc:	a9 01       	movw	r20, r18
    23de:	0e 94 3c 06 	call	0xc78	; 0xc78 <fat_append_clusters>
    23e2:	00 97       	sbiw	r24, 0x00	; 0
    23e4:	09 f4       	brne	.+2      	; 0x23e8 <fat_resize_file+0x104>
    23e6:	81 c0       	rjmp	.+258    	; 0x24ea <fat_resize_file+0x206>
    23e8:	01 2b       	or	r16, r17
    23ea:	21 f4       	brne	.+8      	; 0x23f4 <fat_resize_file+0x110>
    23ec:	f2 01       	movw	r30, r4
    23ee:	94 a3       	std	Z+36, r25	; 0x24
    23f0:	83 a3       	std	Z+35, r24	; 0x23
    23f2:	7c 01       	movw	r14, r24
    23f4:	d2 01       	movw	r26, r4
    23f6:	95 96       	adiw	r26, 0x25	; 37
    23f8:	ad 92       	st	X+, r10
    23fa:	bd 92       	st	X+, r11
    23fc:	cd 92       	st	X+, r12
    23fe:	dc 92       	st	X, r13
    2400:	98 97       	sbiw	r26, 0x28	; 40
    2402:	a1 14       	cp	r10, r1
    2404:	b1 04       	cpc	r11, r1
    2406:	c1 04       	cpc	r12, r1
    2408:	d1 04       	cpc	r13, r1
    240a:	21 f4       	brne	.+8      	; 0x2414 <fat_resize_file+0x130>
    240c:	94 96       	adiw	r26, 0x24	; 36
    240e:	1c 92       	st	X, r1
    2410:	1e 92       	st	-X, r1
    2412:	93 97       	sbiw	r26, 0x23	; 35
    2414:	f2 01       	movw	r30, r4
    2416:	81 91       	ld	r24, Z+
    2418:	91 91       	ld	r25, Z+
    241a:	bf 01       	movw	r22, r30
    241c:	0e 94 f0 0e 	call	0x1de0	; 0x1de0 <fat_write_dir_entry>
    2420:	88 23       	and	r24, r24
    2422:	09 f4       	brne	.+2      	; 0x2426 <fat_resize_file+0x142>
    2424:	62 c0       	rjmp	.+196    	; 0x24ea <fat_resize_file+0x206>
    2426:	a1 14       	cp	r10, r1
    2428:	b1 04       	cpc	r11, r1
    242a:	c1 04       	cpc	r12, r1
    242c:	d1 04       	cpc	r13, r1
    242e:	29 f4       	brne	.+10     	; 0x243a <fat_resize_file+0x156>
    2430:	f2 01       	movw	r30, r4
    2432:	80 81       	ld	r24, Z
    2434:	91 81       	ldd	r25, Z+1	; 0x01
    2436:	b7 01       	movw	r22, r14
    2438:	3f c0       	rjmp	.+126    	; 0x24b8 <fat_resize_file+0x1d4>
    243a:	0b 81       	ldd	r16, Y+3	; 0x03
    243c:	1c 81       	ldd	r17, Y+4	; 0x04
    243e:	2d 81       	ldd	r18, Y+5	; 0x05
    2440:	3e 81       	ldd	r19, Y+6	; 0x06
    2442:	60 16       	cp	r6, r16
    2444:	71 06       	cpc	r7, r17
    2446:	82 06       	cpc	r8, r18
    2448:	93 06       	cpc	r9, r19
    244a:	c0 f1       	brcs	.+112    	; 0x24bc <fat_resize_file+0x1d8>
    244c:	d2 01       	movw	r26, r4
    244e:	0d 91       	ld	r16, X+
    2450:	1c 91       	ld	r17, X
    2452:	01 15       	cp	r16, r1
    2454:	11 05       	cpc	r17, r1
    2456:	91 f1       	breq	.+100    	; 0x24bc <fat_resize_file+0x1d8>
    2458:	b2 e0       	ldi	r27, 0x02	; 2
    245a:	eb 16       	cp	r14, r27
    245c:	f1 04       	cpc	r15, r1
    245e:	70 f1       	brcs	.+92     	; 0x24bc <fat_resize_file+0x1d8>
    2460:	c8 01       	movw	r24, r16
    2462:	b7 01       	movw	r22, r14
    2464:	0e 94 86 05 	call	0xb0c	; 0xb0c <fat_get_next_cluster>
    2468:	4c 01       	movw	r8, r24
    246a:	8f ef       	ldi	r24, 0xFF	; 255
    246c:	9f ef       	ldi	r25, 0xFF	; 255
    246e:	9a 83       	std	Y+2, r25	; 0x02
    2470:	89 83       	std	Y+1, r24	; 0x01
    2472:	d8 01       	movw	r26, r16
    2474:	ed 91       	ld	r30, X+
    2476:	fc 91       	ld	r31, X
    2478:	11 97       	sbiw	r26, 0x01	; 1
    247a:	ee 0c       	add	r14, r14
    247c:	ff 1c       	adc	r15, r15
    247e:	b7 01       	movw	r22, r14
    2480:	80 e0       	ldi	r24, 0x00	; 0
    2482:	90 e0       	ldi	r25, 0x00	; 0
    2484:	16 96       	adiw	r26, 0x06	; 6
    2486:	2d 91       	ld	r18, X+
    2488:	3d 91       	ld	r19, X+
    248a:	4d 91       	ld	r20, X+
    248c:	5c 91       	ld	r21, X
    248e:	19 97       	sbiw	r26, 0x09	; 9
    2490:	62 0f       	add	r22, r18
    2492:	73 1f       	adc	r23, r19
    2494:	84 1f       	adc	r24, r20
    2496:	95 1f       	adc	r25, r21
    2498:	04 80       	ldd	r0, Z+4	; 0x04
    249a:	f5 81       	ldd	r31, Z+5	; 0x05
    249c:	e0 2d       	mov	r30, r0
    249e:	ae 01       	movw	r20, r28
    24a0:	4f 5f       	subi	r20, 0xFF	; 255
    24a2:	5f 4f       	sbci	r21, 0xFF	; 255
    24a4:	22 e0       	ldi	r18, 0x02	; 2
    24a6:	30 e0       	ldi	r19, 0x00	; 0
    24a8:	09 95       	icall
    24aa:	88 23       	and	r24, r24
    24ac:	39 f0       	breq	.+14     	; 0x24bc <fat_resize_file+0x1d8>
    24ae:	81 14       	cp	r8, r1
    24b0:	91 04       	cpc	r9, r1
    24b2:	21 f0       	breq	.+8      	; 0x24bc <fat_resize_file+0x1d8>
    24b4:	c8 01       	movw	r24, r16
    24b6:	b4 01       	movw	r22, r8
    24b8:	0e 94 c6 05 	call	0xb8c	; 0xb8c <fat_free_clusters>
    24bc:	f2 01       	movw	r30, r4
    24be:	85 a5       	ldd	r24, Z+45	; 0x2d
    24c0:	96 a5       	ldd	r25, Z+46	; 0x2e
    24c2:	a7 a5       	ldd	r26, Z+47	; 0x2f
    24c4:	b0 a9       	ldd	r27, Z+48	; 0x30
    24c6:	a8 16       	cp	r10, r24
    24c8:	b9 06       	cpc	r11, r25
    24ca:	ca 06       	cpc	r12, r26
    24cc:	db 06       	cpc	r13, r27
    24ce:	58 f4       	brcc	.+22     	; 0x24e6 <fat_resize_file+0x202>
    24d0:	d2 01       	movw	r26, r4
    24d2:	9d 96       	adiw	r26, 0x2d	; 45
    24d4:	ad 92       	st	X+, r10
    24d6:	bd 92       	st	X+, r11
    24d8:	cd 92       	st	X+, r12
    24da:	dc 92       	st	X, r13
    24dc:	d0 97       	sbiw	r26, 0x30	; 48
    24de:	d2 96       	adiw	r26, 0x32	; 50
    24e0:	1c 92       	st	X, r1
    24e2:	1e 92       	st	-X, r1
    24e4:	d1 97       	sbiw	r26, 0x31	; 49
    24e6:	81 e0       	ldi	r24, 0x01	; 1
    24e8:	01 c0       	rjmp	.+2      	; 0x24ec <fat_resize_file+0x208>
    24ea:	80 e0       	ldi	r24, 0x00	; 0
    24ec:	2a 96       	adiw	r28, 0x0a	; 10
    24ee:	0f b6       	in	r0, 0x3f	; 63
    24f0:	f8 94       	cli
    24f2:	de bf       	out	0x3e, r29	; 62
    24f4:	0f be       	out	0x3f, r0	; 63
    24f6:	cd bf       	out	0x3d, r28	; 61
    24f8:	cf 91       	pop	r28
    24fa:	df 91       	pop	r29
    24fc:	1f 91       	pop	r17
    24fe:	0f 91       	pop	r16
    2500:	ff 90       	pop	r15
    2502:	ef 90       	pop	r14
    2504:	df 90       	pop	r13
    2506:	cf 90       	pop	r12
    2508:	bf 90       	pop	r11
    250a:	af 90       	pop	r10
    250c:	9f 90       	pop	r9
    250e:	8f 90       	pop	r8
    2510:	7f 90       	pop	r7
    2512:	6f 90       	pop	r6
    2514:	5f 90       	pop	r5
    2516:	4f 90       	pop	r4
    2518:	08 95       	ret
    251a:	78 01       	movw	r14, r16
    251c:	01 15       	cp	r16, r1
    251e:	11 05       	cpc	r17, r1
    2520:	09 f4       	brne	.+2      	; 0x2524 <fat_resize_file+0x240>
    2522:	48 cf       	rjmp	.-368    	; 0x23b4 <fat_resize_file+0xd0>
    2524:	67 cf       	rjmp	.-306    	; 0x23f4 <fat_resize_file+0x110>

00002526 <fat_seek_file>:
    2526:	cf 92       	push	r12
    2528:	df 92       	push	r13
    252a:	ef 92       	push	r14
    252c:	ff 92       	push	r15
    252e:	0f 93       	push	r16
    2530:	1f 93       	push	r17
    2532:	cf 93       	push	r28
    2534:	df 93       	push	r29
    2536:	ec 01       	movw	r28, r24
    2538:	6b 01       	movw	r12, r22
    253a:	00 97       	sbiw	r24, 0x00	; 0
    253c:	09 f4       	brne	.+2      	; 0x2540 <fat_seek_file+0x1a>
    253e:	45 c0       	rjmp	.+138    	; 0x25ca <fat_seek_file+0xa4>
    2540:	61 15       	cp	r22, r1
    2542:	71 05       	cpc	r23, r1
    2544:	09 f4       	brne	.+2      	; 0x2548 <fat_seek_file+0x22>
    2546:	41 c0       	rjmp	.+130    	; 0x25ca <fat_seek_file+0xa4>
    2548:	8d a5       	ldd	r24, Y+45	; 0x2d
    254a:	9e a5       	ldd	r25, Y+46	; 0x2e
    254c:	af a5       	ldd	r26, Y+47	; 0x2f
    254e:	b8 a9       	ldd	r27, Y+48	; 0x30
    2550:	41 30       	cpi	r20, 0x01	; 1
    2552:	59 f0       	breq	.+22     	; 0x256a <fat_seek_file+0x44>
    2554:	41 30       	cpi	r20, 0x01	; 1
    2556:	18 f0       	brcs	.+6      	; 0x255e <fat_seek_file+0x38>
    2558:	42 30       	cpi	r20, 0x02	; 2
    255a:	b9 f5       	brne	.+110    	; 0x25ca <fat_seek_file+0xa4>
    255c:	0c c0       	rjmp	.+24     	; 0x2576 <fat_seek_file+0x50>
    255e:	fb 01       	movw	r30, r22
    2560:	e0 80       	ld	r14, Z
    2562:	f1 80       	ldd	r15, Z+1	; 0x01
    2564:	02 81       	ldd	r16, Z+2	; 0x02
    2566:	13 81       	ldd	r17, Z+3	; 0x03
    2568:	13 c0       	rjmp	.+38     	; 0x2590 <fat_seek_file+0x6a>
    256a:	fb 01       	movw	r30, r22
    256c:	e0 80       	ld	r14, Z
    256e:	f1 80       	ldd	r15, Z+1	; 0x01
    2570:	02 81       	ldd	r16, Z+2	; 0x02
    2572:	13 81       	ldd	r17, Z+3	; 0x03
    2574:	09 c0       	rjmp	.+18     	; 0x2588 <fat_seek_file+0x62>
    2576:	fb 01       	movw	r30, r22
    2578:	e0 80       	ld	r14, Z
    257a:	f1 80       	ldd	r15, Z+1	; 0x01
    257c:	02 81       	ldd	r16, Z+2	; 0x02
    257e:	13 81       	ldd	r17, Z+3	; 0x03
    2580:	8d a1       	ldd	r24, Y+37	; 0x25
    2582:	9e a1       	ldd	r25, Y+38	; 0x26
    2584:	af a1       	ldd	r26, Y+39	; 0x27
    2586:	b8 a5       	ldd	r27, Y+40	; 0x28
    2588:	e8 0e       	add	r14, r24
    258a:	f9 1e       	adc	r15, r25
    258c:	0a 1f       	adc	r16, r26
    258e:	1b 1f       	adc	r17, r27
    2590:	8d a1       	ldd	r24, Y+37	; 0x25
    2592:	9e a1       	ldd	r25, Y+38	; 0x26
    2594:	af a1       	ldd	r26, Y+39	; 0x27
    2596:	b8 a5       	ldd	r27, Y+40	; 0x28
    2598:	8e 15       	cp	r24, r14
    259a:	9f 05       	cpc	r25, r15
    259c:	a0 07       	cpc	r26, r16
    259e:	b1 07       	cpc	r27, r17
    25a0:	38 f4       	brcc	.+14     	; 0x25b0 <fat_seek_file+0x8a>
    25a2:	ce 01       	movw	r24, r28
    25a4:	b8 01       	movw	r22, r16
    25a6:	a7 01       	movw	r20, r14
    25a8:	0e 94 72 11 	call	0x22e4	; 0x22e4 <fat_resize_file>
    25ac:	88 23       	and	r24, r24
    25ae:	69 f0       	breq	.+26     	; 0x25ca <fat_seek_file+0xa4>
    25b0:	ed a6       	std	Y+45, r14	; 0x2d
    25b2:	fe a6       	std	Y+46, r15	; 0x2e
    25b4:	0f a7       	std	Y+47, r16	; 0x2f
    25b6:	18 ab       	std	Y+48, r17	; 0x30
    25b8:	1a aa       	std	Y+50, r1	; 0x32
    25ba:	19 aa       	std	Y+49, r1	; 0x31
    25bc:	f6 01       	movw	r30, r12
    25be:	e0 82       	st	Z, r14
    25c0:	f1 82       	std	Z+1, r15	; 0x01
    25c2:	02 83       	std	Z+2, r16	; 0x02
    25c4:	13 83       	std	Z+3, r17	; 0x03
    25c6:	81 e0       	ldi	r24, 0x01	; 1
    25c8:	01 c0       	rjmp	.+2      	; 0x25cc <fat_seek_file+0xa6>
    25ca:	80 e0       	ldi	r24, 0x00	; 0
    25cc:	df 91       	pop	r29
    25ce:	cf 91       	pop	r28
    25d0:	1f 91       	pop	r17
    25d2:	0f 91       	pop	r16
    25d4:	ff 90       	pop	r15
    25d6:	ef 90       	pop	r14
    25d8:	df 90       	pop	r13
    25da:	cf 90       	pop	r12
    25dc:	08 95       	ret

000025de <fat_write_file>:
    25de:	2f 92       	push	r2
    25e0:	3f 92       	push	r3
    25e2:	4f 92       	push	r4
    25e4:	5f 92       	push	r5
    25e6:	6f 92       	push	r6
    25e8:	7f 92       	push	r7
    25ea:	8f 92       	push	r8
    25ec:	9f 92       	push	r9
    25ee:	af 92       	push	r10
    25f0:	bf 92       	push	r11
    25f2:	cf 92       	push	r12
    25f4:	df 92       	push	r13
    25f6:	ef 92       	push	r14
    25f8:	ff 92       	push	r15
    25fa:	0f 93       	push	r16
    25fc:	1f 93       	push	r17
    25fe:	df 93       	push	r29
    2600:	cf 93       	push	r28
    2602:	00 d0       	rcall	.+0      	; 0x2604 <fat_write_file+0x26>
    2604:	00 d0       	rcall	.+0      	; 0x2606 <fat_write_file+0x28>
    2606:	00 d0       	rcall	.+0      	; 0x2608 <fat_write_file+0x2a>
    2608:	cd b7       	in	r28, 0x3d	; 61
    260a:	de b7       	in	r29, 0x3e	; 62
    260c:	9e 83       	std	Y+6, r25	; 0x06
    260e:	8d 83       	std	Y+5, r24	; 0x05
    2610:	7a 83       	std	Y+2, r23	; 0x02
    2612:	69 83       	std	Y+1, r22	; 0x01
    2614:	5c 83       	std	Y+4, r21	; 0x04
    2616:	4b 83       	std	Y+3, r20	; 0x03
    2618:	00 97       	sbiw	r24, 0x00	; 0
    261a:	09 f4       	brne	.+2      	; 0x261e <fat_write_file+0x40>
    261c:	41 c1       	rjmp	.+642    	; 0x28a0 <fat_write_file+0x2c2>
    261e:	67 2b       	or	r22, r23
    2620:	09 f4       	brne	.+2      	; 0x2624 <fat_write_file+0x46>
    2622:	3e c1       	rjmp	.+636    	; 0x28a0 <fat_write_file+0x2c2>
    2624:	45 2b       	or	r20, r21
    2626:	09 f4       	brne	.+2      	; 0x262a <fat_write_file+0x4c>
    2628:	3b c1       	rjmp	.+630    	; 0x28a0 <fat_write_file+0x2c2>
    262a:	dc 01       	movw	r26, r24
    262c:	9d 96       	adiw	r26, 0x2d	; 45
    262e:	8d 90       	ld	r8, X+
    2630:	9d 90       	ld	r9, X+
    2632:	ad 90       	ld	r10, X+
    2634:	bc 90       	ld	r11, X
    2636:	d0 97       	sbiw	r26, 0x30	; 48
    2638:	fc 01       	movw	r30, r24
    263a:	85 a1       	ldd	r24, Z+37	; 0x25
    263c:	96 a1       	ldd	r25, Z+38	; 0x26
    263e:	a7 a1       	ldd	r26, Z+39	; 0x27
    2640:	b0 a5       	ldd	r27, Z+40	; 0x28
    2642:	88 15       	cp	r24, r8
    2644:	99 05       	cpc	r25, r9
    2646:	aa 05       	cpc	r26, r10
    2648:	bb 05       	cpc	r27, r11
    264a:	08 f4       	brcc	.+2      	; 0x264e <fat_write_file+0x70>
    264c:	29 c1       	rjmp	.+594    	; 0x28a0 <fat_write_file+0x2c2>
    264e:	01 90       	ld	r0, Z+
    2650:	f0 81       	ld	r31, Z
    2652:	e0 2d       	mov	r30, r0
    2654:	20 88       	ldd	r2, Z+16	; 0x10
    2656:	31 88       	ldd	r3, Z+17	; 0x11
    2658:	ad 81       	ldd	r26, Y+5	; 0x05
    265a:	be 81       	ldd	r27, Y+6	; 0x06
    265c:	d1 96       	adiw	r26, 0x31	; 49
    265e:	0d 91       	ld	r16, X+
    2660:	1c 91       	ld	r17, X
    2662:	d2 97       	sbiw	r26, 0x32	; 50
    2664:	01 15       	cp	r16, r1
    2666:	11 05       	cpc	r17, r1
    2668:	09 f0       	breq	.+2      	; 0x266c <fat_write_file+0x8e>
    266a:	55 c0       	rjmp	.+170    	; 0x2716 <fat_write_file+0x138>
    266c:	93 96       	adiw	r26, 0x23	; 35
    266e:	0d 91       	ld	r16, X+
    2670:	1c 91       	ld	r17, X
    2672:	94 97       	sbiw	r26, 0x24	; 36
    2674:	01 15       	cp	r16, r1
    2676:	11 05       	cpc	r17, r1
    2678:	a9 f4       	brne	.+42     	; 0x26a4 <fat_write_file+0xc6>
    267a:	81 14       	cp	r8, r1
    267c:	91 04       	cpc	r9, r1
    267e:	a1 04       	cpc	r10, r1
    2680:	b1 04       	cpc	r11, r1
    2682:	09 f0       	breq	.+2      	; 0x2686 <fat_write_file+0xa8>
    2684:	0d c1       	rjmp	.+538    	; 0x28a0 <fat_write_file+0x2c2>
    2686:	cf 01       	movw	r24, r30
    2688:	60 e0       	ldi	r22, 0x00	; 0
    268a:	70 e0       	ldi	r23, 0x00	; 0
    268c:	41 e0       	ldi	r20, 0x01	; 1
    268e:	50 e0       	ldi	r21, 0x00	; 0
    2690:	0e 94 3c 06 	call	0xc78	; 0xc78 <fat_append_clusters>
    2694:	8c 01       	movw	r16, r24
    2696:	ed 81       	ldd	r30, Y+5	; 0x05
    2698:	fe 81       	ldd	r31, Y+6	; 0x06
    269a:	94 a3       	std	Z+36, r25	; 0x24
    269c:	83 a3       	std	Z+35, r24	; 0x23
    269e:	00 97       	sbiw	r24, 0x00	; 0
    26a0:	09 f4       	brne	.+2      	; 0x26a4 <fat_write_file+0xc6>
    26a2:	fe c0       	rjmp	.+508    	; 0x28a0 <fat_write_file+0x2c2>
    26a4:	ad 81       	ldd	r26, Y+5	; 0x05
    26a6:	be 81       	ldd	r27, Y+6	; 0x06
    26a8:	9d 96       	adiw	r26, 0x2d	; 45
    26aa:	cd 90       	ld	r12, X+
    26ac:	dd 90       	ld	r13, X+
    26ae:	ed 90       	ld	r14, X+
    26b0:	fc 90       	ld	r15, X
    26b2:	d0 97       	sbiw	r26, 0x30	; 48
    26b4:	c1 14       	cp	r12, r1
    26b6:	d1 04       	cpc	r13, r1
    26b8:	e1 04       	cpc	r14, r1
    26ba:	f1 04       	cpc	r15, r1
    26bc:	21 f5       	brne	.+72     	; 0x2706 <fat_write_file+0x128>
    26be:	2b c0       	rjmp	.+86     	; 0x2716 <fat_write_file+0x138>
    26c0:	c4 18       	sub	r12, r4
    26c2:	d5 08       	sbc	r13, r5
    26c4:	e6 08       	sbc	r14, r6
    26c6:	f7 08       	sbc	r15, r7
    26c8:	ed 81       	ldd	r30, Y+5	; 0x05
    26ca:	fe 81       	ldd	r31, Y+6	; 0x06
    26cc:	80 81       	ld	r24, Z
    26ce:	91 81       	ldd	r25, Z+1	; 0x01
    26d0:	b8 01       	movw	r22, r16
    26d2:	0e 94 86 05 	call	0xb0c	; 0xb0c <fat_get_next_cluster>
    26d6:	00 97       	sbiw	r24, 0x00	; 0
    26d8:	11 f0       	breq	.+4      	; 0x26de <fat_write_file+0x100>
    26da:	8c 01       	movw	r16, r24
    26dc:	17 c0       	rjmp	.+46     	; 0x270c <fat_write_file+0x12e>
    26de:	c1 14       	cp	r12, r1
    26e0:	d1 04       	cpc	r13, r1
    26e2:	e1 04       	cpc	r14, r1
    26e4:	f1 04       	cpc	r15, r1
    26e6:	09 f0       	breq	.+2      	; 0x26ea <fat_write_file+0x10c>
    26e8:	db c0       	rjmp	.+438    	; 0x28a0 <fat_write_file+0x2c2>
    26ea:	ad 81       	ldd	r26, Y+5	; 0x05
    26ec:	be 81       	ldd	r27, Y+6	; 0x06
    26ee:	8d 91       	ld	r24, X+
    26f0:	9c 91       	ld	r25, X
    26f2:	b8 01       	movw	r22, r16
    26f4:	41 e0       	ldi	r20, 0x01	; 1
    26f6:	50 e0       	ldi	r21, 0x00	; 0
    26f8:	0e 94 3c 06 	call	0xc78	; 0xc78 <fat_append_clusters>
    26fc:	00 97       	sbiw	r24, 0x00	; 0
    26fe:	09 f4       	brne	.+2      	; 0x2702 <fat_write_file+0x124>
    2700:	cf c0       	rjmp	.+414    	; 0x28a0 <fat_write_file+0x2c2>
    2702:	8c 01       	movw	r16, r24
    2704:	03 c0       	rjmp	.+6      	; 0x270c <fat_write_file+0x12e>
    2706:	21 01       	movw	r4, r2
    2708:	66 24       	eor	r6, r6
    270a:	77 24       	eor	r7, r7
    270c:	c4 14       	cp	r12, r4
    270e:	d5 04       	cpc	r13, r5
    2710:	e6 04       	cpc	r14, r6
    2712:	f7 04       	cpc	r15, r7
    2714:	a8 f6       	brcc	.-86     	; 0x26c0 <fat_write_file+0xe2>
    2716:	08 94       	sec
    2718:	21 08       	sbc	r2, r1
    271a:	31 08       	sbc	r3, r1
    271c:	82 20       	and	r8, r2
    271e:	93 20       	and	r9, r3
    2720:	08 94       	sec
    2722:	21 1c       	adc	r2, r1
    2724:	31 1c       	adc	r3, r1
    2726:	ab 80       	ldd	r10, Y+3	; 0x03
    2728:	bc 80       	ldd	r11, Y+4	; 0x04
    272a:	ed 81       	ldd	r30, Y+5	; 0x05
    272c:	fe 81       	ldd	r31, Y+6	; 0x06
    272e:	c0 80       	ld	r12, Z
    2730:	d1 80       	ldd	r13, Z+1	; 0x01
    2732:	c1 14       	cp	r12, r1
    2734:	d1 04       	cpc	r13, r1
    2736:	f9 f0       	breq	.+62     	; 0x2776 <fat_write_file+0x198>
    2738:	02 30       	cpi	r16, 0x02	; 2
    273a:	11 05       	cpc	r17, r1
    273c:	e0 f0       	brcs	.+56     	; 0x2776 <fat_write_file+0x198>
    273e:	02 50       	subi	r16, 0x02	; 2
    2740:	10 40       	sbci	r17, 0x00	; 0
    2742:	b8 01       	movw	r22, r16
    2744:	80 e0       	ldi	r24, 0x00	; 0
    2746:	90 e0       	ldi	r25, 0x00	; 0
    2748:	0e 5f       	subi	r16, 0xFE	; 254
    274a:	1f 4f       	sbci	r17, 0xFF	; 255
    274c:	d6 01       	movw	r26, r12
    274e:	50 96       	adiw	r26, 0x10	; 16
    2750:	2d 91       	ld	r18, X+
    2752:	3c 91       	ld	r19, X
    2754:	51 97       	sbiw	r26, 0x11	; 17
    2756:	40 e0       	ldi	r20, 0x00	; 0
    2758:	50 e0       	ldi	r21, 0x00	; 0
    275a:	0e 94 97 24 	call	0x492e	; 0x492e <__mulsi3>
    275e:	9b 01       	movw	r18, r22
    2760:	ac 01       	movw	r20, r24
    2762:	f6 01       	movw	r30, r12
    2764:	82 89       	ldd	r24, Z+18	; 0x12
    2766:	93 89       	ldd	r25, Z+19	; 0x13
    2768:	a4 89       	ldd	r26, Z+20	; 0x14
    276a:	b5 89       	ldd	r27, Z+21	; 0x15
    276c:	28 0f       	add	r18, r24
    276e:	39 1f       	adc	r19, r25
    2770:	4a 1f       	adc	r20, r26
    2772:	5b 1f       	adc	r21, r27
    2774:	04 c0       	rjmp	.+8      	; 0x277e <fat_write_file+0x1a0>
    2776:	20 e0       	ldi	r18, 0x00	; 0
    2778:	30 e0       	ldi	r19, 0x00	; 0
    277a:	40 e0       	ldi	r20, 0x00	; 0
    277c:	50 e0       	ldi	r21, 0x00	; 0
    277e:	71 01       	movw	r14, r2
    2780:	e8 18       	sub	r14, r8
    2782:	f9 08       	sbc	r15, r9
    2784:	ae 14       	cp	r10, r14
    2786:	bf 04       	cpc	r11, r15
    2788:	08 f4       	brcc	.+2      	; 0x278c <fat_write_file+0x1ae>
    278a:	75 01       	movw	r14, r10
    278c:	d6 01       	movw	r26, r12
    278e:	ed 91       	ld	r30, X+
    2790:	fc 91       	ld	r31, X
    2792:	c4 01       	movw	r24, r8
    2794:	a0 e0       	ldi	r26, 0x00	; 0
    2796:	b0 e0       	ldi	r27, 0x00	; 0
    2798:	28 0f       	add	r18, r24
    279a:	39 1f       	adc	r19, r25
    279c:	4a 1f       	adc	r20, r26
    279e:	5b 1f       	adc	r21, r27
    27a0:	04 80       	ldd	r0, Z+4	; 0x04
    27a2:	f5 81       	ldd	r31, Z+5	; 0x05
    27a4:	e0 2d       	mov	r30, r0
    27a6:	ca 01       	movw	r24, r20
    27a8:	b9 01       	movw	r22, r18
    27aa:	49 81       	ldd	r20, Y+1	; 0x01
    27ac:	5a 81       	ldd	r21, Y+2	; 0x02
    27ae:	97 01       	movw	r18, r14
    27b0:	09 95       	icall
    27b2:	88 23       	and	r24, r24
    27b4:	09 f4       	brne	.+2      	; 0x27b8 <fat_write_file+0x1da>
    27b6:	48 c0       	rjmp	.+144    	; 0x2848 <fat_write_file+0x26a>
    27b8:	ae 18       	sub	r10, r14
    27ba:	bf 08       	sbc	r11, r15
    27bc:	c7 01       	movw	r24, r14
    27be:	a0 e0       	ldi	r26, 0x00	; 0
    27c0:	b0 e0       	ldi	r27, 0x00	; 0
    27c2:	ed 81       	ldd	r30, Y+5	; 0x05
    27c4:	fe 81       	ldd	r31, Y+6	; 0x06
    27c6:	25 a5       	ldd	r18, Z+45	; 0x2d
    27c8:	36 a5       	ldd	r19, Z+46	; 0x2e
    27ca:	47 a5       	ldd	r20, Z+47	; 0x2f
    27cc:	50 a9       	ldd	r21, Z+48	; 0x30
    27ce:	28 0f       	add	r18, r24
    27d0:	39 1f       	adc	r19, r25
    27d2:	4a 1f       	adc	r20, r26
    27d4:	5b 1f       	adc	r21, r27
    27d6:	25 a7       	std	Z+45, r18	; 0x2d
    27d8:	36 a7       	std	Z+46, r19	; 0x2e
    27da:	47 a7       	std	Z+47, r20	; 0x2f
    27dc:	50 ab       	std	Z+48, r21	; 0x30
    27de:	c7 01       	movw	r24, r14
    27e0:	88 0d       	add	r24, r8
    27e2:	99 1d       	adc	r25, r9
    27e4:	82 15       	cp	r24, r2
    27e6:	93 05       	cpc	r25, r3
    27e8:	08 f1       	brcs	.+66     	; 0x282c <fat_write_file+0x24e>
    27ea:	80 81       	ld	r24, Z
    27ec:	91 81       	ldd	r25, Z+1	; 0x01
    27ee:	b8 01       	movw	r22, r16
    27f0:	0e 94 86 05 	call	0xb0c	; 0xb0c <fat_get_next_cluster>
    27f4:	00 97       	sbiw	r24, 0x00	; 0
    27f6:	11 f0       	breq	.+4      	; 0x27fc <fat_write_file+0x21e>
    27f8:	8c 01       	movw	r16, r24
    27fa:	16 c0       	rjmp	.+44     	; 0x2828 <fat_write_file+0x24a>
    27fc:	a1 14       	cp	r10, r1
    27fe:	b1 04       	cpc	r11, r1
    2800:	59 f0       	breq	.+22     	; 0x2818 <fat_write_file+0x23a>
    2802:	ed 81       	ldd	r30, Y+5	; 0x05
    2804:	fe 81       	ldd	r31, Y+6	; 0x06
    2806:	80 81       	ld	r24, Z
    2808:	91 81       	ldd	r25, Z+1	; 0x01
    280a:	b8 01       	movw	r22, r16
    280c:	41 e0       	ldi	r20, 0x01	; 1
    280e:	50 e0       	ldi	r21, 0x00	; 0
    2810:	0e 94 3c 06 	call	0xc78	; 0xc78 <fat_append_clusters>
    2814:	00 97       	sbiw	r24, 0x00	; 0
    2816:	39 f4       	brne	.+14     	; 0x2826 <fat_write_file+0x248>
    2818:	ad 81       	ldd	r26, Y+5	; 0x05
    281a:	be 81       	ldd	r27, Y+6	; 0x06
    281c:	d2 96       	adiw	r26, 0x32	; 50
    281e:	1c 92       	st	X, r1
    2820:	1e 92       	st	-X, r1
    2822:	d1 97       	sbiw	r26, 0x31	; 49
    2824:	11 c0       	rjmp	.+34     	; 0x2848 <fat_write_file+0x26a>
    2826:	8c 01       	movw	r16, r24
    2828:	88 24       	eor	r8, r8
    282a:	99 24       	eor	r9, r9
    282c:	ed 81       	ldd	r30, Y+5	; 0x05
    282e:	fe 81       	ldd	r31, Y+6	; 0x06
    2830:	12 ab       	std	Z+50, r17	; 0x32
    2832:	01 ab       	std	Z+49, r16	; 0x31
    2834:	a1 14       	cp	r10, r1
    2836:	b1 04       	cpc	r11, r1
    2838:	39 f0       	breq	.+14     	; 0x2848 <fat_write_file+0x26a>
    283a:	89 81       	ldd	r24, Y+1	; 0x01
    283c:	9a 81       	ldd	r25, Y+2	; 0x02
    283e:	8e 0d       	add	r24, r14
    2840:	9f 1d       	adc	r25, r15
    2842:	9a 83       	std	Y+2, r25	; 0x02
    2844:	89 83       	std	Y+1, r24	; 0x01
    2846:	71 cf       	rjmp	.-286    	; 0x272a <fat_write_file+0x14c>
    2848:	ed 81       	ldd	r30, Y+5	; 0x05
    284a:	fe 81       	ldd	r31, Y+6	; 0x06
    284c:	85 a5       	ldd	r24, Z+45	; 0x2d
    284e:	96 a5       	ldd	r25, Z+46	; 0x2e
    2850:	a7 a5       	ldd	r26, Z+47	; 0x2f
    2852:	b0 a9       	ldd	r27, Z+48	; 0x30
    2854:	e5 a0       	ldd	r14, Z+37	; 0x25
    2856:	f6 a0       	ldd	r15, Z+38	; 0x26
    2858:	07 a1       	ldd	r16, Z+39	; 0x27
    285a:	10 a5       	ldd	r17, Z+40	; 0x28
    285c:	e8 16       	cp	r14, r24
    285e:	f9 06       	cpc	r15, r25
    2860:	0a 07       	cpc	r16, r26
    2862:	1b 07       	cpc	r17, r27
    2864:	c0 f4       	brcc	.+48     	; 0x2896 <fat_write_file+0x2b8>
    2866:	85 a3       	std	Z+37, r24	; 0x25
    2868:	96 a3       	std	Z+38, r25	; 0x26
    286a:	a7 a3       	std	Z+39, r26	; 0x27
    286c:	b0 a7       	std	Z+40, r27	; 0x28
    286e:	81 91       	ld	r24, Z+
    2870:	91 91       	ld	r25, Z+
    2872:	bf 01       	movw	r22, r30
    2874:	0e 94 f0 0e 	call	0x1de0	; 0x1de0 <fat_write_dir_entry>
    2878:	88 23       	and	r24, r24
    287a:	69 f4       	brne	.+26     	; 0x2896 <fat_write_file+0x2b8>
    287c:	ad 81       	ldd	r26, Y+5	; 0x05
    287e:	be 81       	ldd	r27, Y+6	; 0x06
    2880:	9d 96       	adiw	r26, 0x2d	; 45
    2882:	ad 90       	ld	r10, X+
    2884:	bc 90       	ld	r11, X
    2886:	9e 97       	sbiw	r26, 0x2e	; 46
    2888:	ae 18       	sub	r10, r14
    288a:	bf 08       	sbc	r11, r15
    288c:	fd 01       	movw	r30, r26
    288e:	e5 a6       	std	Z+45, r14	; 0x2d
    2890:	f6 a6       	std	Z+46, r15	; 0x2e
    2892:	07 a7       	std	Z+47, r16	; 0x2f
    2894:	10 ab       	std	Z+48, r17	; 0x30
    2896:	4b 81       	ldd	r20, Y+3	; 0x03
    2898:	5c 81       	ldd	r21, Y+4	; 0x04
    289a:	4a 19       	sub	r20, r10
    289c:	5b 09       	sbc	r21, r11
    289e:	02 c0       	rjmp	.+4      	; 0x28a4 <fat_write_file+0x2c6>
    28a0:	4f ef       	ldi	r20, 0xFF	; 255
    28a2:	5f ef       	ldi	r21, 0xFF	; 255
    28a4:	ca 01       	movw	r24, r20
    28a6:	26 96       	adiw	r28, 0x06	; 6
    28a8:	0f b6       	in	r0, 0x3f	; 63
    28aa:	f8 94       	cli
    28ac:	de bf       	out	0x3e, r29	; 62
    28ae:	0f be       	out	0x3f, r0	; 63
    28b0:	cd bf       	out	0x3d, r28	; 61
    28b2:	cf 91       	pop	r28
    28b4:	df 91       	pop	r29
    28b6:	1f 91       	pop	r17
    28b8:	0f 91       	pop	r16
    28ba:	ff 90       	pop	r15
    28bc:	ef 90       	pop	r14
    28be:	df 90       	pop	r13
    28c0:	cf 90       	pop	r12
    28c2:	bf 90       	pop	r11
    28c4:	af 90       	pop	r10
    28c6:	9f 90       	pop	r9
    28c8:	8f 90       	pop	r8
    28ca:	7f 90       	pop	r7
    28cc:	6f 90       	pop	r6
    28ce:	5f 90       	pop	r5
    28d0:	4f 90       	pop	r4
    28d2:	3f 90       	pop	r3
    28d4:	2f 90       	pop	r2
    28d6:	08 95       	ret

000028d8 <fat_open_dir>:
    28d8:	cf 93       	push	r28
    28da:	df 93       	push	r29
    28dc:	ac 01       	movw	r20, r24
    28de:	db 01       	movw	r26, r22
    28e0:	00 97       	sbiw	r24, 0x00	; 0
    28e2:	89 f1       	breq	.+98     	; 0x2946 <fat_open_dir+0x6e>
    28e4:	61 15       	cp	r22, r1
    28e6:	71 05       	cpc	r23, r1
    28e8:	71 f1       	breq	.+92     	; 0x2946 <fat_open_dir+0x6e>
    28ea:	90 96       	adiw	r26, 0x20	; 32
    28ec:	8c 91       	ld	r24, X
    28ee:	90 97       	sbiw	r26, 0x20	; 32
    28f0:	84 ff       	sbrs	r24, 4
    28f2:	29 c0       	rjmp	.+82     	; 0x2946 <fat_open_dir+0x6e>
    28f4:	80 91 99 02 	lds	r24, 0x0299
    28f8:	90 91 9a 02 	lds	r25, 0x029A
    28fc:	89 2b       	or	r24, r25
    28fe:	19 f4       	brne	.+6      	; 0x2906 <fat_open_dir+0x2e>
    2900:	e9 e9       	ldi	r30, 0x99	; 153
    2902:	f2 e0       	ldi	r31, 0x02	; 2
    2904:	08 c0       	rjmp	.+16     	; 0x2916 <fat_open_dir+0x3e>
    2906:	80 91 ca 02 	lds	r24, 0x02CA
    290a:	90 91 cb 02 	lds	r25, 0x02CB
    290e:	89 2b       	or	r24, r25
    2910:	d1 f4       	brne	.+52     	; 0x2946 <fat_open_dir+0x6e>
    2912:	ea ec       	ldi	r30, 0xCA	; 202
    2914:	f2 e0       	ldi	r31, 0x02	; 2
    2916:	9f 01       	movw	r18, r30
    2918:	2e 5f       	subi	r18, 0xFE	; 254
    291a:	3f 4f       	sbci	r19, 0xFF	; 255
    291c:	bd 01       	movw	r22, r26
    291e:	8b e2       	ldi	r24, 0x2B	; 43
    2920:	eb 01       	movw	r28, r22
    2922:	09 90       	ld	r0, Y+
    2924:	be 01       	movw	r22, r28
    2926:	e9 01       	movw	r28, r18
    2928:	09 92       	st	Y+, r0
    292a:	9e 01       	movw	r18, r28
    292c:	81 50       	subi	r24, 0x01	; 1
    292e:	c1 f7       	brne	.-16     	; 0x2920 <fat_open_dir+0x48>
    2930:	51 83       	std	Z+1, r21	; 0x01
    2932:	40 83       	st	Z, r20
    2934:	91 96       	adiw	r26, 0x21	; 33
    2936:	8d 91       	ld	r24, X+
    2938:	9c 91       	ld	r25, X
    293a:	92 97       	sbiw	r26, 0x22	; 34
    293c:	96 a7       	std	Z+46, r25	; 0x2e
    293e:	85 a7       	std	Z+45, r24	; 0x2d
    2940:	10 aa       	std	Z+48, r1	; 0x30
    2942:	17 a6       	std	Z+47, r1	; 0x2f
    2944:	02 c0       	rjmp	.+4      	; 0x294a <fat_open_dir+0x72>
    2946:	e0 e0       	ldi	r30, 0x00	; 0
    2948:	f0 e0       	ldi	r31, 0x00	; 0
    294a:	cf 01       	movw	r24, r30
    294c:	df 91       	pop	r29
    294e:	cf 91       	pop	r28
    2950:	08 95       	ret

00002952 <fat_open_file>:
    2952:	cf 93       	push	r28
    2954:	df 93       	push	r29
    2956:	9c 01       	movw	r18, r24
    2958:	fb 01       	movw	r30, r22
    295a:	00 97       	sbiw	r24, 0x00	; 0
    295c:	31 f0       	breq	.+12     	; 0x296a <fat_open_file+0x18>
    295e:	61 15       	cp	r22, r1
    2960:	71 05       	cpc	r23, r1
    2962:	19 f0       	breq	.+6      	; 0x296a <fat_open_file+0x18>
    2964:	80 a1       	ldd	r24, Z+32	; 0x20
    2966:	84 ff       	sbrs	r24, 4
    2968:	23 c0       	rjmp	.+70     	; 0x29b0 <fat_open_file+0x5e>
    296a:	20 e0       	ldi	r18, 0x00	; 0
    296c:	30 e0       	ldi	r19, 0x00	; 0
    296e:	c9 01       	movw	r24, r18
    2970:	df 91       	pop	r29
    2972:	cf 91       	pop	r28
    2974:	08 95       	ret
    2976:	c8 e6       	ldi	r28, 0x68	; 104
    2978:	d2 e0       	ldi	r29, 0x02	; 2
    297a:	df 01       	movw	r26, r30
    297c:	8b e2       	ldi	r24, 0x2B	; 43
    297e:	0d 90       	ld	r0, X+
    2980:	09 92       	st	Y+, r0
    2982:	81 50       	subi	r24, 0x01	; 1
    2984:	e1 f7       	brne	.-8      	; 0x297e <fat_open_file+0x2c>
    2986:	30 93 67 02 	sts	0x0267, r19
    298a:	20 93 66 02 	sts	0x0266, r18
    298e:	10 92 93 02 	sts	0x0293, r1
    2992:	10 92 94 02 	sts	0x0294, r1
    2996:	10 92 95 02 	sts	0x0295, r1
    299a:	10 92 96 02 	sts	0x0296, r1
    299e:	81 a1       	ldd	r24, Z+33	; 0x21
    29a0:	92 a1       	ldd	r25, Z+34	; 0x22
    29a2:	90 93 98 02 	sts	0x0298, r25
    29a6:	80 93 97 02 	sts	0x0297, r24
    29aa:	26 e6       	ldi	r18, 0x66	; 102
    29ac:	32 e0       	ldi	r19, 0x02	; 2
    29ae:	df cf       	rjmp	.-66     	; 0x296e <fat_open_file+0x1c>
    29b0:	80 91 66 02 	lds	r24, 0x0266
    29b4:	90 91 67 02 	lds	r25, 0x0267
    29b8:	89 2b       	or	r24, r25
    29ba:	b9 f6       	brne	.-82     	; 0x296a <fat_open_file+0x18>
    29bc:	dc cf       	rjmp	.-72     	; 0x2976 <fat_open_file+0x24>

000029be <fat_get_dir_entry_of_path>:
    29be:	6f 92       	push	r6
    29c0:	7f 92       	push	r7
    29c2:	8f 92       	push	r8
    29c4:	9f 92       	push	r9
    29c6:	af 92       	push	r10
    29c8:	bf 92       	push	r11
    29ca:	cf 92       	push	r12
    29cc:	df 92       	push	r13
    29ce:	ef 92       	push	r14
    29d0:	ff 92       	push	r15
    29d2:	0f 93       	push	r16
    29d4:	1f 93       	push	r17
    29d6:	cf 93       	push	r28
    29d8:	df 93       	push	r29
    29da:	4c 01       	movw	r8, r24
    29dc:	eb 01       	movw	r28, r22
    29de:	7a 01       	movw	r14, r20
    29e0:	00 97       	sbiw	r24, 0x00	; 0
    29e2:	09 f4       	brne	.+2      	; 0x29e6 <fat_get_dir_entry_of_path+0x28>
    29e4:	67 c0       	rjmp	.+206    	; 0x2ab4 <fat_get_dir_entry_of_path+0xf6>
    29e6:	61 15       	cp	r22, r1
    29e8:	71 05       	cpc	r23, r1
    29ea:	09 f4       	brne	.+2      	; 0x29ee <fat_get_dir_entry_of_path+0x30>
    29ec:	63 c0       	rjmp	.+198    	; 0x2ab4 <fat_get_dir_entry_of_path+0xf6>
    29ee:	88 81       	ld	r24, Y
    29f0:	88 23       	and	r24, r24
    29f2:	09 f4       	brne	.+2      	; 0x29f6 <fat_get_dir_entry_of_path+0x38>
    29f4:	5f c0       	rjmp	.+190    	; 0x2ab4 <fat_get_dir_entry_of_path+0xf6>
    29f6:	41 15       	cp	r20, r1
    29f8:	51 05       	cpc	r21, r1
    29fa:	09 f4       	brne	.+2      	; 0x29fe <fat_get_dir_entry_of_path+0x40>
    29fc:	5b c0       	rjmp	.+182    	; 0x2ab4 <fat_get_dir_entry_of_path+0xf6>
    29fe:	8f 32       	cpi	r24, 0x2F	; 47
    2a00:	09 f4       	brne	.+2      	; 0x2a04 <fat_get_dir_entry_of_path+0x46>
    2a02:	21 96       	adiw	r28, 0x01	; 1
    2a04:	8b e2       	ldi	r24, 0x2B	; 43
    2a06:	f7 01       	movw	r30, r14
    2a08:	11 92       	st	Z+, r1
    2a0a:	8a 95       	dec	r24
    2a0c:	e9 f7       	brne	.-6      	; 0x2a08 <fat_get_dir_entry_of_path+0x4a>
    2a0e:	80 e1       	ldi	r24, 0x10	; 16
    2a10:	f7 01       	movw	r30, r14
    2a12:	80 a3       	std	Z+32, r24	; 0x20
    2a14:	37 01       	movw	r6, r14
    2a16:	01 c0       	rjmp	.+2      	; 0x2a1a <fat_get_dir_entry_of_path+0x5c>
    2a18:	e5 01       	movw	r28, r10
    2a1a:	88 81       	ld	r24, Y
    2a1c:	88 23       	and	r24, r24
    2a1e:	09 f4       	brne	.+2      	; 0x2a22 <fat_get_dir_entry_of_path+0x64>
    2a20:	4b c0       	rjmp	.+150    	; 0x2ab8 <fat_get_dir_entry_of_path+0xfa>
    2a22:	c4 01       	movw	r24, r8
    2a24:	b7 01       	movw	r22, r14
    2a26:	0e 94 6c 14 	call	0x28d8	; 0x28d8 <fat_open_dir>
    2a2a:	6c 01       	movw	r12, r24
    2a2c:	00 97       	sbiw	r24, 0x00	; 0
    2a2e:	09 f4       	brne	.+2      	; 0x2a32 <fat_get_dir_entry_of_path+0x74>
    2a30:	41 c0       	rjmp	.+130    	; 0x2ab4 <fat_get_dir_entry_of_path+0xf6>
    2a32:	ce 01       	movw	r24, r28
    2a34:	6f e2       	ldi	r22, 0x2F	; 47
    2a36:	70 e0       	ldi	r23, 0x00	; 0
    2a38:	0e 94 46 25 	call	0x4a8c	; 0x4a8c <strchr>
    2a3c:	00 97       	sbiw	r24, 0x00	; 0
    2a3e:	39 f0       	breq	.+14     	; 0x2a4e <fat_get_dir_entry_of_path+0x90>
    2a40:	48 2f       	mov	r20, r24
    2a42:	4c 1b       	sub	r20, r28
    2a44:	5c 01       	movw	r10, r24
    2a46:	08 94       	sec
    2a48:	a1 1c       	adc	r10, r1
    2a4a:	b1 1c       	adc	r11, r1
    2a4c:	2a c0       	rjmp	.+84     	; 0x2aa2 <fat_get_dir_entry_of_path+0xe4>
    2a4e:	fe 01       	movw	r30, r28
    2a50:	01 90       	ld	r0, Z+
    2a52:	00 20       	and	r0, r0
    2a54:	e9 f7       	brne	.-6      	; 0x2a50 <fat_get_dir_entry_of_path+0x92>
    2a56:	31 97       	sbiw	r30, 0x01	; 1
    2a58:	4e 2f       	mov	r20, r30
    2a5a:	4c 1b       	sub	r20, r28
    2a5c:	5e 01       	movw	r10, r28
    2a5e:	a4 0e       	add	r10, r20
    2a60:	b1 1c       	adc	r11, r1
    2a62:	1f c0       	rjmp	.+62     	; 0x2aa2 <fat_get_dir_entry_of_path+0xe4>
    2a64:	f3 01       	movw	r30, r6
    2a66:	01 90       	ld	r0, Z+
    2a68:	00 20       	and	r0, r0
    2a6a:	e9 f7       	brne	.-6      	; 0x2a66 <fat_get_dir_entry_of_path+0xa8>
    2a6c:	31 97       	sbiw	r30, 0x01	; 1
    2a6e:	e6 19       	sub	r30, r6
    2a70:	f7 09       	sbc	r31, r7
    2a72:	e0 17       	cp	r30, r16
    2a74:	f1 07       	cpc	r31, r17
    2a76:	b9 f4       	brne	.+46     	; 0x2aa6 <fat_get_dir_entry_of_path+0xe8>
    2a78:	ce 01       	movw	r24, r28
    2a7a:	b3 01       	movw	r22, r6
    2a7c:	a8 01       	movw	r20, r16
    2a7e:	0e 94 5a 25 	call	0x4ab4	; 0x4ab4 <strncmp>
    2a82:	00 97       	sbiw	r24, 0x00	; 0
    2a84:	81 f4       	brne	.+32     	; 0x2aa6 <fat_get_dir_entry_of_path+0xe8>
    2a86:	f6 01       	movw	r30, r12
    2a88:	11 82       	std	Z+1, r1	; 0x01
    2a8a:	10 82       	st	Z, r1
    2a8c:	0c 0f       	add	r16, r28
    2a8e:	1d 1f       	adc	r17, r29
    2a90:	f8 01       	movw	r30, r16
    2a92:	80 81       	ld	r24, Z
    2a94:	88 23       	and	r24, r24
    2a96:	81 f0       	breq	.+32     	; 0x2ab8 <fat_get_dir_entry_of_path+0xfa>
    2a98:	f7 01       	movw	r30, r14
    2a9a:	80 a1       	ldd	r24, Z+32	; 0x20
    2a9c:	84 fd       	sbrc	r24, 4
    2a9e:	bc cf       	rjmp	.-136    	; 0x2a18 <fat_get_dir_entry_of_path+0x5a>
    2aa0:	09 c0       	rjmp	.+18     	; 0x2ab4 <fat_get_dir_entry_of_path+0xf6>
    2aa2:	04 2f       	mov	r16, r20
    2aa4:	10 e0       	ldi	r17, 0x00	; 0
    2aa6:	c6 01       	movw	r24, r12
    2aa8:	b7 01       	movw	r22, r14
    2aaa:	0e 94 39 0a 	call	0x1472	; 0x1472 <fat_read_dir>
    2aae:	88 23       	and	r24, r24
    2ab0:	c9 f6       	brne	.-78     	; 0x2a64 <fat_get_dir_entry_of_path+0xa6>
    2ab2:	12 c0       	rjmp	.+36     	; 0x2ad8 <fat_get_dir_entry_of_path+0x11a>
    2ab4:	80 e0       	ldi	r24, 0x00	; 0
    2ab6:	01 c0       	rjmp	.+2      	; 0x2aba <fat_get_dir_entry_of_path+0xfc>
    2ab8:	81 e0       	ldi	r24, 0x01	; 1
    2aba:	df 91       	pop	r29
    2abc:	cf 91       	pop	r28
    2abe:	1f 91       	pop	r17
    2ac0:	0f 91       	pop	r16
    2ac2:	ff 90       	pop	r15
    2ac4:	ef 90       	pop	r14
    2ac6:	df 90       	pop	r13
    2ac8:	cf 90       	pop	r12
    2aca:	bf 90       	pop	r11
    2acc:	af 90       	pop	r10
    2ace:	9f 90       	pop	r9
    2ad0:	8f 90       	pop	r8
    2ad2:	7f 90       	pop	r7
    2ad4:	6f 90       	pop	r6
    2ad6:	08 95       	ret
    2ad8:	f6 01       	movw	r30, r12
    2ada:	11 82       	std	Z+1, r1	; 0x01
    2adc:	10 82       	st	Z, r1
    2ade:	9d cf       	rjmp	.-198    	; 0x2a1a <fat_get_dir_entry_of_path+0x5c>

00002ae0 <partition_close>:
    2ae0:	fc 01       	movw	r30, r24
    2ae2:	00 97       	sbiw	r24, 0x00	; 0
    2ae4:	11 f4       	brne	.+4      	; 0x2aea <partition_close+0xa>
    2ae6:	80 e0       	ldi	r24, 0x00	; 0
    2ae8:	08 95       	ret
    2aea:	10 86       	std	Z+8, r1	; 0x08
    2aec:	81 e0       	ldi	r24, 0x01	; 1
    2aee:	08 95       	ret

00002af0 <partition_open>:
    2af0:	8f 92       	push	r8
    2af2:	9f 92       	push	r9
    2af4:	af 92       	push	r10
    2af6:	bf 92       	push	r11
    2af8:	cf 92       	push	r12
    2afa:	df 92       	push	r13
    2afc:	ef 92       	push	r14
    2afe:	ff 92       	push	r15
    2b00:	0f 93       	push	r16
    2b02:	df 93       	push	r29
    2b04:	cf 93       	push	r28
    2b06:	cd b7       	in	r28, 0x3d	; 61
    2b08:	de b7       	in	r29, 0x3e	; 62
    2b0a:	60 97       	sbiw	r28, 0x10	; 16
    2b0c:	0f b6       	in	r0, 0x3f	; 63
    2b0e:	f8 94       	cli
    2b10:	de bf       	out	0x3e, r29	; 62
    2b12:	0f be       	out	0x3f, r0	; 63
    2b14:	cd bf       	out	0x3d, r28	; 61
    2b16:	7c 01       	movw	r14, r24
    2b18:	6b 01       	movw	r12, r22
    2b1a:	5a 01       	movw	r10, r20
    2b1c:	49 01       	movw	r8, r18
    2b1e:	00 97       	sbiw	r24, 0x00	; 0
    2b20:	09 f4       	brne	.+2      	; 0x2b24 <partition_open+0x34>
    2b22:	93 c0       	rjmp	.+294    	; 0x2c4a <partition_open+0x15a>
    2b24:	61 15       	cp	r22, r1
    2b26:	71 05       	cpc	r23, r1
    2b28:	09 f4       	brne	.+2      	; 0x2b2c <partition_open+0x3c>
    2b2a:	8f c0       	rjmp	.+286    	; 0x2c4a <partition_open+0x15a>
    2b2c:	04 30       	cpi	r16, 0x04	; 4
    2b2e:	0c f0       	brlt	.+2      	; 0x2b32 <partition_open+0x42>
    2b30:	8c c0       	rjmp	.+280    	; 0x2c4a <partition_open+0x15a>
    2b32:	07 fd       	sbrc	r16, 7
    2b34:	1d c0       	rjmp	.+58     	; 0x2b70 <partition_open+0x80>
    2b36:	60 2f       	mov	r22, r16
    2b38:	77 27       	eor	r23, r23
    2b3a:	67 fd       	sbrc	r22, 7
    2b3c:	70 95       	com	r23
    2b3e:	e4 e0       	ldi	r30, 0x04	; 4
    2b40:	66 0f       	add	r22, r22
    2b42:	77 1f       	adc	r23, r23
    2b44:	ea 95       	dec	r30
    2b46:	e1 f7       	brne	.-8      	; 0x2b40 <partition_open+0x50>
    2b48:	62 54       	subi	r22, 0x42	; 66
    2b4a:	7e 4f       	sbci	r23, 0xFE	; 254
    2b4c:	88 27       	eor	r24, r24
    2b4e:	77 fd       	sbrc	r23, 7
    2b50:	80 95       	com	r24
    2b52:	98 2f       	mov	r25, r24
    2b54:	ae 01       	movw	r20, r28
    2b56:	4f 5f       	subi	r20, 0xFF	; 255
    2b58:	5f 4f       	sbci	r21, 0xFF	; 255
    2b5a:	20 e1       	ldi	r18, 0x10	; 16
    2b5c:	30 e0       	ldi	r19, 0x00	; 0
    2b5e:	f7 01       	movw	r30, r14
    2b60:	09 95       	icall
    2b62:	88 23       	and	r24, r24
    2b64:	09 f4       	brne	.+2      	; 0x2b68 <partition_open+0x78>
    2b66:	71 c0       	rjmp	.+226    	; 0x2c4a <partition_open+0x15a>
    2b68:	8d 81       	ldd	r24, Y+5	; 0x05
    2b6a:	88 23       	and	r24, r24
    2b6c:	09 f4       	brne	.+2      	; 0x2b70 <partition_open+0x80>
    2b6e:	6d c0       	rjmp	.+218    	; 0x2c4a <partition_open+0x15a>
    2b70:	80 91 03 03 	lds	r24, 0x0303
    2b74:	88 23       	and	r24, r24
    2b76:	09 f0       	breq	.+2      	; 0x2b7a <partition_open+0x8a>
    2b78:	68 c0       	rjmp	.+208    	; 0x2c4a <partition_open+0x15a>
    2b7a:	7c c0       	rjmp	.+248    	; 0x2c74 <partition_open+0x184>
    2b7c:	8d 81       	ldd	r24, Y+5	; 0x05
    2b7e:	80 93 03 03 	sts	0x0303, r24
    2b82:	2a 85       	ldd	r18, Y+10	; 0x0a
    2b84:	30 e0       	ldi	r19, 0x00	; 0
    2b86:	40 e0       	ldi	r20, 0x00	; 0
    2b88:	50 e0       	ldi	r21, 0x00	; 0
    2b8a:	54 2f       	mov	r21, r20
    2b8c:	43 2f       	mov	r20, r19
    2b8e:	32 2f       	mov	r19, r18
    2b90:	22 27       	eor	r18, r18
    2b92:	8b 85       	ldd	r24, Y+11	; 0x0b
    2b94:	90 e0       	ldi	r25, 0x00	; 0
    2b96:	a0 e0       	ldi	r26, 0x00	; 0
    2b98:	b0 e0       	ldi	r27, 0x00	; 0
    2b9a:	dc 01       	movw	r26, r24
    2b9c:	99 27       	eor	r25, r25
    2b9e:	88 27       	eor	r24, r24
    2ba0:	28 2b       	or	r18, r24
    2ba2:	39 2b       	or	r19, r25
    2ba4:	4a 2b       	or	r20, r26
    2ba6:	5b 2b       	or	r21, r27
    2ba8:	89 85       	ldd	r24, Y+9	; 0x09
    2baa:	90 e0       	ldi	r25, 0x00	; 0
    2bac:	a0 e0       	ldi	r26, 0x00	; 0
    2bae:	b0 e0       	ldi	r27, 0x00	; 0
    2bb0:	28 2b       	or	r18, r24
    2bb2:	39 2b       	or	r19, r25
    2bb4:	4a 2b       	or	r20, r26
    2bb6:	5b 2b       	or	r21, r27
    2bb8:	8c 85       	ldd	r24, Y+12	; 0x0c
    2bba:	90 e0       	ldi	r25, 0x00	; 0
    2bbc:	a0 e0       	ldi	r26, 0x00	; 0
    2bbe:	b0 e0       	ldi	r27, 0x00	; 0
    2bc0:	b8 2f       	mov	r27, r24
    2bc2:	aa 27       	eor	r26, r26
    2bc4:	99 27       	eor	r25, r25
    2bc6:	88 27       	eor	r24, r24
    2bc8:	28 2b       	or	r18, r24
    2bca:	39 2b       	or	r19, r25
    2bcc:	4a 2b       	or	r20, r26
    2bce:	5b 2b       	or	r21, r27
    2bd0:	20 93 04 03 	sts	0x0304, r18
    2bd4:	30 93 05 03 	sts	0x0305, r19
    2bd8:	40 93 06 03 	sts	0x0306, r20
    2bdc:	50 93 07 03 	sts	0x0307, r21
    2be0:	2e 85       	ldd	r18, Y+14	; 0x0e
    2be2:	30 e0       	ldi	r19, 0x00	; 0
    2be4:	40 e0       	ldi	r20, 0x00	; 0
    2be6:	50 e0       	ldi	r21, 0x00	; 0
    2be8:	54 2f       	mov	r21, r20
    2bea:	43 2f       	mov	r20, r19
    2bec:	32 2f       	mov	r19, r18
    2bee:	22 27       	eor	r18, r18
    2bf0:	8f 85       	ldd	r24, Y+15	; 0x0f
    2bf2:	90 e0       	ldi	r25, 0x00	; 0
    2bf4:	a0 e0       	ldi	r26, 0x00	; 0
    2bf6:	b0 e0       	ldi	r27, 0x00	; 0
    2bf8:	dc 01       	movw	r26, r24
    2bfa:	99 27       	eor	r25, r25
    2bfc:	88 27       	eor	r24, r24
    2bfe:	28 2b       	or	r18, r24
    2c00:	39 2b       	or	r19, r25
    2c02:	4a 2b       	or	r20, r26
    2c04:	5b 2b       	or	r21, r27
    2c06:	8d 85       	ldd	r24, Y+13	; 0x0d
    2c08:	90 e0       	ldi	r25, 0x00	; 0
    2c0a:	a0 e0       	ldi	r26, 0x00	; 0
    2c0c:	b0 e0       	ldi	r27, 0x00	; 0
    2c0e:	28 2b       	or	r18, r24
    2c10:	39 2b       	or	r19, r25
    2c12:	4a 2b       	or	r20, r26
    2c14:	5b 2b       	or	r21, r27
    2c16:	88 89       	ldd	r24, Y+16	; 0x10
    2c18:	90 e0       	ldi	r25, 0x00	; 0
    2c1a:	a0 e0       	ldi	r26, 0x00	; 0
    2c1c:	b0 e0       	ldi	r27, 0x00	; 0
    2c1e:	b8 2f       	mov	r27, r24
    2c20:	aa 27       	eor	r26, r26
    2c22:	99 27       	eor	r25, r25
    2c24:	88 27       	eor	r24, r24
    2c26:	28 2b       	or	r18, r24
    2c28:	39 2b       	or	r19, r25
    2c2a:	4a 2b       	or	r20, r26
    2c2c:	5b 2b       	or	r21, r27
    2c2e:	20 93 08 03 	sts	0x0308, r18
    2c32:	30 93 09 03 	sts	0x0309, r19
    2c36:	40 93 0a 03 	sts	0x030A, r20
    2c3a:	50 93 0b 03 	sts	0x030B, r21
    2c3e:	03 c0       	rjmp	.+6      	; 0x2c46 <partition_open+0x156>
    2c40:	8f ef       	ldi	r24, 0xFF	; 255
    2c42:	80 93 03 03 	sts	0x0303, r24
    2c46:	9f 01       	movw	r18, r30
    2c48:	02 c0       	rjmp	.+4      	; 0x2c4e <partition_open+0x15e>
    2c4a:	20 e0       	ldi	r18, 0x00	; 0
    2c4c:	30 e0       	ldi	r19, 0x00	; 0
    2c4e:	c9 01       	movw	r24, r18
    2c50:	60 96       	adiw	r28, 0x10	; 16
    2c52:	0f b6       	in	r0, 0x3f	; 63
    2c54:	f8 94       	cli
    2c56:	de bf       	out	0x3e, r29	; 62
    2c58:	0f be       	out	0x3f, r0	; 63
    2c5a:	cd bf       	out	0x3d, r28	; 61
    2c5c:	cf 91       	pop	r28
    2c5e:	df 91       	pop	r29
    2c60:	0f 91       	pop	r16
    2c62:	ff 90       	pop	r15
    2c64:	ef 90       	pop	r14
    2c66:	df 90       	pop	r13
    2c68:	cf 90       	pop	r12
    2c6a:	bf 90       	pop	r11
    2c6c:	af 90       	pop	r10
    2c6e:	9f 90       	pop	r9
    2c70:	8f 90       	pop	r8
    2c72:	08 95       	ret
    2c74:	eb ef       	ldi	r30, 0xFB	; 251
    2c76:	f2 e0       	ldi	r31, 0x02	; 2
    2c78:	81 e1       	ldi	r24, 0x11	; 17
    2c7a:	df 01       	movw	r26, r30
    2c7c:	1d 92       	st	X+, r1
    2c7e:	8a 95       	dec	r24
    2c80:	e9 f7       	brne	.-6      	; 0x2c7c <partition_open+0x18c>
    2c82:	f0 92 fc 02 	sts	0x02FC, r15
    2c86:	e0 92 fb 02 	sts	0x02FB, r14
    2c8a:	d0 92 fe 02 	sts	0x02FE, r13
    2c8e:	c0 92 fd 02 	sts	0x02FD, r12
    2c92:	b0 92 00 03 	sts	0x0300, r11
    2c96:	a0 92 ff 02 	sts	0x02FF, r10
    2c9a:	90 92 02 03 	sts	0x0302, r9
    2c9e:	80 92 01 03 	sts	0x0301, r8
    2ca2:	07 ff       	sbrs	r16, 7
    2ca4:	6b cf       	rjmp	.-298    	; 0x2b7c <partition_open+0x8c>
    2ca6:	cc cf       	rjmp	.-104    	; 0x2c40 <partition_open+0x150>

00002ca8 <sd_raw_available>:
    2ca8:	81 e0       	ldi	r24, 0x01	; 1
    2caa:	08 95       	ret

00002cac <sd_raw_locked>:
    2cac:	80 e0       	ldi	r24, 0x00	; 0
    2cae:	08 95       	ret

00002cb0 <sd_raw_send_command>:
    2cb0:	28 2f       	mov	r18, r24
    2cb2:	8f ef       	ldi	r24, 0xFF	; 255
    2cb4:	8e bd       	out	0x2e, r24	; 46
    2cb6:	0d b4       	in	r0, 0x2d	; 45
    2cb8:	07 fe       	sbrs	r0, 7
    2cba:	fd cf       	rjmp	.-6      	; 0x2cb6 <sd_raw_send_command+0x6>
    2cbc:	8d b5       	in	r24, 0x2d	; 45
    2cbe:	8f 77       	andi	r24, 0x7F	; 127
    2cc0:	8d bd       	out	0x2d, r24	; 45
    2cc2:	8e b5       	in	r24, 0x2e	; 46
    2cc4:	82 2f       	mov	r24, r18
    2cc6:	80 64       	ori	r24, 0x40	; 64
    2cc8:	8e bd       	out	0x2e, r24	; 46
    2cca:	0d b4       	in	r0, 0x2d	; 45
    2ccc:	07 fe       	sbrs	r0, 7
    2cce:	fd cf       	rjmp	.-6      	; 0x2cca <sd_raw_send_command+0x1a>
    2cd0:	8d b5       	in	r24, 0x2d	; 45
    2cd2:	8f 77       	andi	r24, 0x7F	; 127
    2cd4:	8d bd       	out	0x2d, r24	; 45
    2cd6:	87 2f       	mov	r24, r23
    2cd8:	99 27       	eor	r25, r25
    2cda:	aa 27       	eor	r26, r26
    2cdc:	bb 27       	eor	r27, r27
    2cde:	8e bd       	out	0x2e, r24	; 46
    2ce0:	0d b4       	in	r0, 0x2d	; 45
    2ce2:	07 fe       	sbrs	r0, 7
    2ce4:	fd cf       	rjmp	.-6      	; 0x2ce0 <sd_raw_send_command+0x30>
    2ce6:	8d b5       	in	r24, 0x2d	; 45
    2ce8:	8f 77       	andi	r24, 0x7F	; 127
    2cea:	8d bd       	out	0x2d, r24	; 45
    2cec:	cb 01       	movw	r24, r22
    2cee:	aa 27       	eor	r26, r26
    2cf0:	bb 27       	eor	r27, r27
    2cf2:	8e bd       	out	0x2e, r24	; 46
    2cf4:	0d b4       	in	r0, 0x2d	; 45
    2cf6:	07 fe       	sbrs	r0, 7
    2cf8:	fd cf       	rjmp	.-6      	; 0x2cf4 <sd_raw_send_command+0x44>
    2cfa:	8d b5       	in	r24, 0x2d	; 45
    2cfc:	8f 77       	andi	r24, 0x7F	; 127
    2cfe:	8d bd       	out	0x2d, r24	; 45
    2d00:	bb 27       	eor	r27, r27
    2d02:	a7 2f       	mov	r26, r23
    2d04:	96 2f       	mov	r25, r22
    2d06:	85 2f       	mov	r24, r21
    2d08:	8e bd       	out	0x2e, r24	; 46
    2d0a:	0d b4       	in	r0, 0x2d	; 45
    2d0c:	07 fe       	sbrs	r0, 7
    2d0e:	fd cf       	rjmp	.-6      	; 0x2d0a <sd_raw_send_command+0x5a>
    2d10:	8d b5       	in	r24, 0x2d	; 45
    2d12:	8f 77       	andi	r24, 0x7F	; 127
    2d14:	8d bd       	out	0x2d, r24	; 45
    2d16:	4e bd       	out	0x2e, r20	; 46
    2d18:	0d b4       	in	r0, 0x2d	; 45
    2d1a:	07 fe       	sbrs	r0, 7
    2d1c:	fd cf       	rjmp	.-6      	; 0x2d18 <sd_raw_send_command+0x68>
    2d1e:	8d b5       	in	r24, 0x2d	; 45
    2d20:	8f 77       	andi	r24, 0x7F	; 127
    2d22:	8d bd       	out	0x2d, r24	; 45
    2d24:	22 23       	and	r18, r18
    2d26:	19 f0       	breq	.+6      	; 0x2d2e <sd_raw_send_command+0x7e>
    2d28:	28 30       	cpi	r18, 0x08	; 8
    2d2a:	69 f4       	brne	.+26     	; 0x2d46 <sd_raw_send_command+0x96>
    2d2c:	06 c0       	rjmp	.+12     	; 0x2d3a <sd_raw_send_command+0x8a>
    2d2e:	85 e9       	ldi	r24, 0x95	; 149
    2d30:	8e bd       	out	0x2e, r24	; 46
    2d32:	0d b4       	in	r0, 0x2d	; 45
    2d34:	07 fe       	sbrs	r0, 7
    2d36:	fd cf       	rjmp	.-6      	; 0x2d32 <sd_raw_send_command+0x82>
    2d38:	0b c0       	rjmp	.+22     	; 0x2d50 <sd_raw_send_command+0xa0>
    2d3a:	87 e8       	ldi	r24, 0x87	; 135
    2d3c:	8e bd       	out	0x2e, r24	; 46
    2d3e:	0d b4       	in	r0, 0x2d	; 45
    2d40:	07 fe       	sbrs	r0, 7
    2d42:	fd cf       	rjmp	.-6      	; 0x2d3e <sd_raw_send_command+0x8e>
    2d44:	05 c0       	rjmp	.+10     	; 0x2d50 <sd_raw_send_command+0xa0>
    2d46:	8f ef       	ldi	r24, 0xFF	; 255
    2d48:	8e bd       	out	0x2e, r24	; 46
    2d4a:	0d b4       	in	r0, 0x2d	; 45
    2d4c:	07 fe       	sbrs	r0, 7
    2d4e:	fd cf       	rjmp	.-6      	; 0x2d4a <sd_raw_send_command+0x9a>
    2d50:	8d b5       	in	r24, 0x2d	; 45
    2d52:	8f 77       	andi	r24, 0x7F	; 127
    2d54:	8d bd       	out	0x2d, r24	; 45
    2d56:	90 e0       	ldi	r25, 0x00	; 0
    2d58:	2f ef       	ldi	r18, 0xFF	; 255
    2d5a:	2e bd       	out	0x2e, r18	; 46
    2d5c:	0d b4       	in	r0, 0x2d	; 45
    2d5e:	07 fe       	sbrs	r0, 7
    2d60:	fd cf       	rjmp	.-6      	; 0x2d5c <sd_raw_send_command+0xac>
    2d62:	8d b5       	in	r24, 0x2d	; 45
    2d64:	8f 77       	andi	r24, 0x7F	; 127
    2d66:	8d bd       	out	0x2d, r24	; 45
    2d68:	8e b5       	in	r24, 0x2e	; 46
    2d6a:	8f 3f       	cpi	r24, 0xFF	; 255
    2d6c:	19 f4       	brne	.+6      	; 0x2d74 <sd_raw_send_command+0xc4>
    2d6e:	9f 5f       	subi	r25, 0xFF	; 255
    2d70:	9a 30       	cpi	r25, 0x0A	; 10
    2d72:	99 f7       	brne	.-26     	; 0x2d5a <sd_raw_send_command+0xaa>
    2d74:	08 95       	ret

00002d76 <sd_raw_get_info>:
    2d76:	cf 92       	push	r12
    2d78:	df 92       	push	r13
    2d7a:	ef 92       	push	r14
    2d7c:	ff 92       	push	r15
    2d7e:	0f 93       	push	r16
    2d80:	1f 93       	push	r17
    2d82:	cf 93       	push	r28
    2d84:	df 93       	push	r29
    2d86:	ec 01       	movw	r28, r24
    2d88:	00 97       	sbiw	r24, 0x00	; 0
    2d8a:	81 f0       	breq	.+32     	; 0x2dac <sd_raw_get_info+0x36>
    2d8c:	89 e1       	ldi	r24, 0x19	; 25
    2d8e:	fe 01       	movw	r30, r28
    2d90:	11 92       	st	Z+, r1
    2d92:	8a 95       	dec	r24
    2d94:	e9 f7       	brne	.-6      	; 0x2d90 <sd_raw_get_info+0x1a>
    2d96:	2a 98       	cbi	0x05, 2	; 5
    2d98:	8a e0       	ldi	r24, 0x0A	; 10
    2d9a:	40 e0       	ldi	r20, 0x00	; 0
    2d9c:	50 e0       	ldi	r21, 0x00	; 0
    2d9e:	60 e0       	ldi	r22, 0x00	; 0
    2da0:	70 e0       	ldi	r23, 0x00	; 0
    2da2:	0e 94 58 16 	call	0x2cb0	; 0x2cb0 <sd_raw_send_command>
    2da6:	88 23       	and	r24, r24
    2da8:	19 f0       	breq	.+6      	; 0x2db0 <sd_raw_get_info+0x3a>
    2daa:	2a 9a       	sbi	0x05, 2	; 5
    2dac:	80 e0       	ldi	r24, 0x00	; 0
    2dae:	f7 c0       	rjmp	.+494    	; 0x2f9e <sd_raw_get_info+0x228>
    2db0:	9f ef       	ldi	r25, 0xFF	; 255
    2db2:	9e bd       	out	0x2e, r25	; 46
    2db4:	0d b4       	in	r0, 0x2d	; 45
    2db6:	07 fe       	sbrs	r0, 7
    2db8:	fd cf       	rjmp	.-6      	; 0x2db4 <sd_raw_get_info+0x3e>
    2dba:	8d b5       	in	r24, 0x2d	; 45
    2dbc:	8f 77       	andi	r24, 0x7F	; 127
    2dbe:	8d bd       	out	0x2d, r24	; 45
    2dc0:	8e b5       	in	r24, 0x2e	; 46
    2dc2:	8e 3f       	cpi	r24, 0xFE	; 254
    2dc4:	b1 f7       	brne	.-20     	; 0x2db2 <sd_raw_get_info+0x3c>
    2dc6:	1c 2f       	mov	r17, r28
    2dc8:	ce 01       	movw	r24, r28
    2dca:	fc 01       	movw	r30, r24
    2dcc:	60 e6       	ldi	r22, 0x60	; 96
    2dce:	70 e0       	ldi	r23, 0x00	; 0
    2dd0:	0f ef       	ldi	r16, 0xFF	; 255
    2dd2:	9e 2f       	mov	r25, r30
    2dd4:	91 1b       	sub	r25, r17
    2dd6:	0e bd       	out	0x2e, r16	; 46
    2dd8:	0d b4       	in	r0, 0x2d	; 45
    2dda:	07 fe       	sbrs	r0, 7
    2ddc:	fd cf       	rjmp	.-6      	; 0x2dd8 <sd_raw_get_info+0x62>
    2dde:	8d b5       	in	r24, 0x2d	; 45
    2de0:	8f 77       	andi	r24, 0x7F	; 127
    2de2:	8d bd       	out	0x2d, r24	; 45
    2de4:	2e b5       	in	r18, 0x2e	; 46
    2de6:	98 30       	cpi	r25, 0x08	; 8
    2de8:	28 f4       	brcc	.+10     	; 0x2df4 <sd_raw_get_info+0x7e>
    2dea:	93 30       	cpi	r25, 0x03	; 3
    2dec:	88 f4       	brcc	.+34     	; 0x2e10 <sd_raw_get_info+0x9a>
    2dee:	99 23       	and	r25, r25
    2df0:	59 f0       	breq	.+22     	; 0x2e08 <sd_raw_get_info+0x92>
    2df2:	0c c0       	rjmp	.+24     	; 0x2e0c <sd_raw_get_info+0x96>
    2df4:	9d 30       	cpi	r25, 0x0D	; 13
    2df6:	18 f4       	brcc	.+6      	; 0x2dfe <sd_raw_get_info+0x88>
    2df8:	99 30       	cpi	r25, 0x09	; 9
    2dfa:	70 f4       	brcc	.+28     	; 0x2e18 <sd_raw_get_info+0xa2>
    2dfc:	0b c0       	rjmp	.+22     	; 0x2e14 <sd_raw_get_info+0x9e>
    2dfe:	9d 30       	cpi	r25, 0x0D	; 13
    2e00:	19 f1       	breq	.+70     	; 0x2e48 <sd_raw_get_info+0xd2>
    2e02:	9e 30       	cpi	r25, 0x0E	; 14
    2e04:	69 f5       	brne	.+90     	; 0x2e60 <sd_raw_get_info+0xea>
    2e06:	24 c0       	rjmp	.+72     	; 0x2e50 <sd_raw_get_info+0xda>
    2e08:	28 83       	st	Y, r18
    2e0a:	2a c0       	rjmp	.+84     	; 0x2e60 <sd_raw_get_info+0xea>
    2e0c:	20 83       	st	Z, r18
    2e0e:	28 c0       	rjmp	.+80     	; 0x2e60 <sd_raw_get_info+0xea>
    2e10:	21 83       	std	Z+1, r18	; 0x01
    2e12:	26 c0       	rjmp	.+76     	; 0x2e60 <sd_raw_get_info+0xea>
    2e14:	2a 87       	std	Y+10, r18	; 0x0a
    2e16:	24 c0       	rjmp	.+72     	; 0x2e60 <sd_raw_get_info+0xea>
    2e18:	30 e0       	ldi	r19, 0x00	; 0
    2e1a:	40 e0       	ldi	r20, 0x00	; 0
    2e1c:	50 e0       	ldi	r21, 0x00	; 0
    2e1e:	06 2e       	mov	r0, r22
    2e20:	04 c0       	rjmp	.+8      	; 0x2e2a <sd_raw_get_info+0xb4>
    2e22:	22 0f       	add	r18, r18
    2e24:	33 1f       	adc	r19, r19
    2e26:	44 1f       	adc	r20, r20
    2e28:	55 1f       	adc	r21, r21
    2e2a:	0a 94       	dec	r0
    2e2c:	d2 f7       	brpl	.-12     	; 0x2e22 <sd_raw_get_info+0xac>
    2e2e:	8b 85       	ldd	r24, Y+11	; 0x0b
    2e30:	9c 85       	ldd	r25, Y+12	; 0x0c
    2e32:	ad 85       	ldd	r26, Y+13	; 0x0d
    2e34:	be 85       	ldd	r27, Y+14	; 0x0e
    2e36:	82 2b       	or	r24, r18
    2e38:	93 2b       	or	r25, r19
    2e3a:	a4 2b       	or	r26, r20
    2e3c:	b5 2b       	or	r27, r21
    2e3e:	8b 87       	std	Y+11, r24	; 0x0b
    2e40:	9c 87       	std	Y+12, r25	; 0x0c
    2e42:	ad 87       	std	Y+13, r26	; 0x0d
    2e44:	be 87       	std	Y+14, r27	; 0x0e
    2e46:	0c c0       	rjmp	.+24     	; 0x2e60 <sd_raw_get_info+0xea>
    2e48:	22 95       	swap	r18
    2e4a:	20 7f       	andi	r18, 0xF0	; 240
    2e4c:	2f 87       	std	Y+15, r18	; 0x0f
    2e4e:	08 c0       	rjmp	.+16     	; 0x2e60 <sd_raw_get_info+0xea>
    2e50:	92 2f       	mov	r25, r18
    2e52:	92 95       	swap	r25
    2e54:	9f 70       	andi	r25, 0x0F	; 15
    2e56:	8f 85       	ldd	r24, Y+15	; 0x0f
    2e58:	89 2b       	or	r24, r25
    2e5a:	8f 87       	std	Y+15, r24	; 0x0f
    2e5c:	2f 70       	andi	r18, 0x0F	; 15
    2e5e:	28 8b       	std	Y+16, r18	; 0x10
    2e60:	31 96       	adiw	r30, 0x01	; 1
    2e62:	68 50       	subi	r22, 0x08	; 8
    2e64:	70 40       	sbci	r23, 0x00	; 0
    2e66:	8f ef       	ldi	r24, 0xFF	; 255
    2e68:	60 3d       	cpi	r22, 0xD0	; 208
    2e6a:	78 07       	cpc	r23, r24
    2e6c:	09 f0       	breq	.+2      	; 0x2e70 <sd_raw_get_info+0xfa>
    2e6e:	b1 cf       	rjmp	.-158    	; 0x2dd2 <sd_raw_get_info+0x5c>
    2e70:	89 e0       	ldi	r24, 0x09	; 9
    2e72:	40 e0       	ldi	r20, 0x00	; 0
    2e74:	50 e0       	ldi	r21, 0x00	; 0
    2e76:	60 e0       	ldi	r22, 0x00	; 0
    2e78:	70 e0       	ldi	r23, 0x00	; 0
    2e7a:	0e 94 58 16 	call	0x2cb0	; 0x2cb0 <sd_raw_send_command>
    2e7e:	88 23       	and	r24, r24
    2e80:	09 f0       	breq	.+2      	; 0x2e84 <sd_raw_get_info+0x10e>
    2e82:	93 cf       	rjmp	.-218    	; 0x2daa <sd_raw_get_info+0x34>
    2e84:	9f ef       	ldi	r25, 0xFF	; 255
    2e86:	9e bd       	out	0x2e, r25	; 46
    2e88:	0d b4       	in	r0, 0x2d	; 45
    2e8a:	07 fe       	sbrs	r0, 7
    2e8c:	fd cf       	rjmp	.-6      	; 0x2e88 <sd_raw_get_info+0x112>
    2e8e:	8d b5       	in	r24, 0x2d	; 45
    2e90:	8f 77       	andi	r24, 0x7F	; 127
    2e92:	8d bd       	out	0x2d, r24	; 45
    2e94:	8e b5       	in	r24, 0x2e	; 46
    2e96:	8e 3f       	cpi	r24, 0xFE	; 254
    2e98:	b1 f7       	brne	.-20     	; 0x2e86 <sd_raw_get_info+0x110>
    2e9a:	f0 e0       	ldi	r31, 0x00	; 0
    2e9c:	70 e0       	ldi	r23, 0x00	; 0
    2e9e:	20 e0       	ldi	r18, 0x00	; 0
    2ea0:	30 e0       	ldi	r19, 0x00	; 0
    2ea2:	40 e0       	ldi	r20, 0x00	; 0
    2ea4:	50 e0       	ldi	r21, 0x00	; 0
    2ea6:	60 e0       	ldi	r22, 0x00	; 0
    2ea8:	1f ef       	ldi	r17, 0xFF	; 255
    2eaa:	e1 e0       	ldi	r30, 0x01	; 1
    2eac:	1e bd       	out	0x2e, r17	; 46
    2eae:	0d b4       	in	r0, 0x2d	; 45
    2eb0:	07 fe       	sbrs	r0, 7
    2eb2:	fd cf       	rjmp	.-6      	; 0x2eae <sd_raw_get_info+0x138>
    2eb4:	8d b5       	in	r24, 0x2d	; 45
    2eb6:	8f 77       	andi	r24, 0x7F	; 127
    2eb8:	8d bd       	out	0x2d, r24	; 45
    2eba:	8e b5       	in	r24, 0x2e	; 46
    2ebc:	6e 30       	cpi	r22, 0x0E	; 14
    2ebe:	79 f4       	brne	.+30     	; 0x2ede <sd_raw_get_info+0x168>
    2ec0:	90 e0       	ldi	r25, 0x00	; 0
    2ec2:	86 fd       	sbrc	r24, 6
    2ec4:	ed 8b       	std	Y+21, r30	; 0x15
    2ec6:	85 fd       	sbrc	r24, 5
    2ec8:	ee 8b       	std	Y+22, r30	; 0x16
    2eca:	84 fd       	sbrc	r24, 4
    2ecc:	ef 8b       	std	Y+23, r30	; 0x17
    2ece:	8c 70       	andi	r24, 0x0C	; 12
    2ed0:	90 70       	andi	r25, 0x00	; 0
    2ed2:	95 95       	asr	r25
    2ed4:	87 95       	ror	r24
    2ed6:	95 95       	asr	r25
    2ed8:	87 95       	ror	r24
    2eda:	88 8f       	std	Y+24, r24	; 0x18
    2edc:	5a c0       	rjmp	.+180    	; 0x2f92 <sd_raw_get_info+0x21c>
    2ede:	67 30       	cpi	r22, 0x07	; 7
    2ee0:	f9 f0       	breq	.+62     	; 0x2f20 <sd_raw_get_info+0x1aa>
    2ee2:	68 30       	cpi	r22, 0x08	; 8
    2ee4:	30 f4       	brcc	.+12     	; 0x2ef2 <sd_raw_get_info+0x17c>
    2ee6:	65 30       	cpi	r22, 0x05	; 5
    2ee8:	61 f0       	breq	.+24     	; 0x2f02 <sd_raw_get_info+0x18c>
    2eea:	66 30       	cpi	r22, 0x06	; 6
    2eec:	09 f0       	breq	.+2      	; 0x2ef0 <sd_raw_get_info+0x17a>
    2eee:	51 c0       	rjmp	.+162    	; 0x2f92 <sd_raw_get_info+0x21c>
    2ef0:	0b c0       	rjmp	.+22     	; 0x2f08 <sd_raw_get_info+0x192>
    2ef2:	69 30       	cpi	r22, 0x09	; 9
    2ef4:	a1 f1       	breq	.+104    	; 0x2f5e <sd_raw_get_info+0x1e8>
    2ef6:	69 30       	cpi	r22, 0x09	; 9
    2ef8:	10 f1       	brcs	.+68     	; 0x2f3e <sd_raw_get_info+0x1c8>
    2efa:	6a 30       	cpi	r22, 0x0A	; 10
    2efc:	09 f0       	breq	.+2      	; 0x2f00 <sd_raw_get_info+0x18a>
    2efe:	49 c0       	rjmp	.+146    	; 0x2f92 <sd_raw_get_info+0x21c>
    2f00:	32 c0       	rjmp	.+100    	; 0x2f66 <sd_raw_get_info+0x1f0>
    2f02:	f8 2f       	mov	r31, r24
    2f04:	ff 70       	andi	r31, 0x0F	; 15
    2f06:	45 c0       	rjmp	.+138    	; 0x2f92 <sd_raw_get_info+0x21c>
    2f08:	90 e0       	ldi	r25, 0x00	; 0
    2f0a:	a0 e0       	ldi	r26, 0x00	; 0
    2f0c:	b0 e0       	ldi	r27, 0x00	; 0
    2f0e:	83 70       	andi	r24, 0x03	; 3
    2f10:	90 70       	andi	r25, 0x00	; 0
    2f12:	a0 70       	andi	r26, 0x00	; 0
    2f14:	b0 70       	andi	r27, 0x00	; 0
    2f16:	22 27       	eor	r18, r18
    2f18:	38 2f       	mov	r19, r24
    2f1a:	49 2f       	mov	r20, r25
    2f1c:	5a 2f       	mov	r21, r26
    2f1e:	39 c0       	rjmp	.+114    	; 0x2f92 <sd_raw_get_info+0x21c>
    2f20:	90 e0       	ldi	r25, 0x00	; 0
    2f22:	a0 e0       	ldi	r26, 0x00	; 0
    2f24:	b0 e0       	ldi	r27, 0x00	; 0
    2f26:	28 2b       	or	r18, r24
    2f28:	39 2b       	or	r19, r25
    2f2a:	4a 2b       	or	r20, r26
    2f2c:	5b 2b       	or	r21, r27
    2f2e:	a2 e0       	ldi	r26, 0x02	; 2
    2f30:	22 0f       	add	r18, r18
    2f32:	33 1f       	adc	r19, r19
    2f34:	44 1f       	adc	r20, r20
    2f36:	55 1f       	adc	r21, r21
    2f38:	aa 95       	dec	r26
    2f3a:	d1 f7       	brne	.-12     	; 0x2f30 <sd_raw_get_info+0x1ba>
    2f3c:	2a c0       	rjmp	.+84     	; 0x2f92 <sd_raw_get_info+0x21c>
    2f3e:	82 95       	swap	r24
    2f40:	86 95       	lsr	r24
    2f42:	86 95       	lsr	r24
    2f44:	83 70       	andi	r24, 0x03	; 3
    2f46:	90 e0       	ldi	r25, 0x00	; 0
    2f48:	a0 e0       	ldi	r26, 0x00	; 0
    2f4a:	b0 e0       	ldi	r27, 0x00	; 0
    2f4c:	28 2b       	or	r18, r24
    2f4e:	39 2b       	or	r19, r25
    2f50:	4a 2b       	or	r20, r26
    2f52:	5b 2b       	or	r21, r27
    2f54:	2f 5f       	subi	r18, 0xFF	; 255
    2f56:	3f 4f       	sbci	r19, 0xFF	; 255
    2f58:	4f 4f       	sbci	r20, 0xFF	; 255
    2f5a:	5f 4f       	sbci	r21, 0xFF	; 255
    2f5c:	1a c0       	rjmp	.+52     	; 0x2f92 <sd_raw_get_info+0x21c>
    2f5e:	78 2f       	mov	r23, r24
    2f60:	73 70       	andi	r23, 0x03	; 3
    2f62:	77 0f       	add	r23, r23
    2f64:	16 c0       	rjmp	.+44     	; 0x2f92 <sd_raw_get_info+0x21c>
    2f66:	88 1f       	adc	r24, r24
    2f68:	88 27       	eor	r24, r24
    2f6a:	88 1f       	adc	r24, r24
    2f6c:	78 2b       	or	r23, r24
    2f6e:	8f 2f       	mov	r24, r31
    2f70:	90 e0       	ldi	r25, 0x00	; 0
    2f72:	02 96       	adiw	r24, 0x02	; 2
    2f74:	87 0f       	add	r24, r23
    2f76:	91 1d       	adc	r25, r1
    2f78:	69 01       	movw	r12, r18
    2f7a:	7a 01       	movw	r14, r20
    2f7c:	04 c0       	rjmp	.+8      	; 0x2f86 <sd_raw_get_info+0x210>
    2f7e:	cc 0c       	add	r12, r12
    2f80:	dd 1c       	adc	r13, r13
    2f82:	ee 1c       	adc	r14, r14
    2f84:	ff 1c       	adc	r15, r15
    2f86:	8a 95       	dec	r24
    2f88:	d2 f7       	brpl	.-12     	; 0x2f7e <sd_raw_get_info+0x208>
    2f8a:	c9 8a       	std	Y+17, r12	; 0x11
    2f8c:	da 8a       	std	Y+18, r13	; 0x12
    2f8e:	eb 8a       	std	Y+19, r14	; 0x13
    2f90:	fc 8a       	std	Y+20, r15	; 0x14
    2f92:	6f 5f       	subi	r22, 0xFF	; 255
    2f94:	62 31       	cpi	r22, 0x12	; 18
    2f96:	09 f0       	breq	.+2      	; 0x2f9a <sd_raw_get_info+0x224>
    2f98:	89 cf       	rjmp	.-238    	; 0x2eac <sd_raw_get_info+0x136>
    2f9a:	2a 9a       	sbi	0x05, 2	; 5
    2f9c:	81 e0       	ldi	r24, 0x01	; 1
    2f9e:	df 91       	pop	r29
    2fa0:	cf 91       	pop	r28
    2fa2:	1f 91       	pop	r17
    2fa4:	0f 91       	pop	r16
    2fa6:	ff 90       	pop	r15
    2fa8:	ef 90       	pop	r14
    2faa:	df 90       	pop	r13
    2fac:	cf 90       	pop	r12
    2fae:	08 95       	ret

00002fb0 <sd_raw_write>:
    2fb0:	2f 92       	push	r2
    2fb2:	3f 92       	push	r3
    2fb4:	4f 92       	push	r4
    2fb6:	5f 92       	push	r5
    2fb8:	6f 92       	push	r6
    2fba:	7f 92       	push	r7
    2fbc:	8f 92       	push	r8
    2fbe:	9f 92       	push	r9
    2fc0:	af 92       	push	r10
    2fc2:	bf 92       	push	r11
    2fc4:	cf 92       	push	r12
    2fc6:	df 92       	push	r13
    2fc8:	ef 92       	push	r14
    2fca:	ff 92       	push	r15
    2fcc:	0f 93       	push	r16
    2fce:	1f 93       	push	r17
    2fd0:	cf 93       	push	r28
    2fd2:	df 93       	push	r29
    2fd4:	4b 01       	movw	r8, r22
    2fd6:	5c 01       	movw	r10, r24
    2fd8:	2a 01       	movw	r4, r20
    2fda:	39 01       	movw	r6, r18
    2fdc:	33 24       	eor	r3, r3
    2fde:	3a 94       	dec	r3
    2fe0:	22 24       	eor	r2, r2
    2fe2:	23 94       	inc	r2
    2fe4:	a1 c0       	rjmp	.+322    	; 0x3128 <sd_raw_write+0x178>
    2fe6:	e4 01       	movw	r28, r8
    2fe8:	d1 70       	andi	r29, 0x01	; 1
    2fea:	ce 01       	movw	r24, r28
    2fec:	a0 e0       	ldi	r26, 0x00	; 0
    2fee:	b0 e0       	ldi	r27, 0x00	; 0
    2ff0:	85 01       	movw	r16, r10
    2ff2:	74 01       	movw	r14, r8
    2ff4:	e8 1a       	sub	r14, r24
    2ff6:	f9 0a       	sbc	r15, r25
    2ff8:	0a 0b       	sbc	r16, r26
    2ffa:	1b 0b       	sbc	r17, r27
    2ffc:	c1 2c       	mov	r12, r1
    2ffe:	b2 e0       	ldi	r27, 0x02	; 2
    3000:	db 2e       	mov	r13, r27
    3002:	cc 1a       	sub	r12, r28
    3004:	dd 0a       	sbc	r13, r29
    3006:	6c 14       	cp	r6, r12
    3008:	7d 04       	cpc	r7, r13
    300a:	08 f4       	brcc	.+2      	; 0x300e <sd_raw_write+0x5e>
    300c:	63 01       	movw	r12, r6
    300e:	80 91 0c 05 	lds	r24, 0x050C
    3012:	90 91 0d 05 	lds	r25, 0x050D
    3016:	a0 91 0e 05 	lds	r26, 0x050E
    301a:	b0 91 0f 05 	lds	r27, 0x050F
    301e:	e8 16       	cp	r14, r24
    3020:	f9 06       	cpc	r15, r25
    3022:	0a 07       	cpc	r16, r26
    3024:	1b 07       	cpc	r17, r27
    3026:	f9 f0       	breq	.+62     	; 0x3066 <sd_raw_write+0xb6>
    3028:	0e 94 ae 18 	call	0x315c	; 0x315c <sd_raw_sync>
    302c:	88 23       	and	r24, r24
    302e:	09 f4       	brne	.+2      	; 0x3032 <sd_raw_write+0x82>
    3030:	81 c0       	rjmp	.+258    	; 0x3134 <sd_raw_write+0x184>
    3032:	20 97       	sbiw	r28, 0x00	; 0
    3034:	29 f4       	brne	.+10     	; 0x3040 <sd_raw_write+0x90>
    3036:	80 e0       	ldi	r24, 0x00	; 0
    3038:	c8 16       	cp	r12, r24
    303a:	82 e0       	ldi	r24, 0x02	; 2
    303c:	d8 06       	cpc	r13, r24
    303e:	58 f4       	brcc	.+22     	; 0x3056 <sd_raw_write+0xa6>
    3040:	c8 01       	movw	r24, r16
    3042:	b7 01       	movw	r22, r14
    3044:	4c e0       	ldi	r20, 0x0C	; 12
    3046:	53 e0       	ldi	r21, 0x03	; 3
    3048:	20 e0       	ldi	r18, 0x00	; 0
    304a:	32 e0       	ldi	r19, 0x02	; 2
    304c:	0e 94 c8 18 	call	0x3190	; 0x3190 <sd_raw_read>
    3050:	88 23       	and	r24, r24
    3052:	09 f4       	brne	.+2      	; 0x3056 <sd_raw_write+0xa6>
    3054:	6f c0       	rjmp	.+222    	; 0x3134 <sd_raw_write+0x184>
    3056:	e0 92 0c 05 	sts	0x050C, r14
    305a:	f0 92 0d 05 	sts	0x050D, r15
    305e:	00 93 0e 05 	sts	0x050E, r16
    3062:	10 93 0f 05 	sts	0x050F, r17
    3066:	8c e0       	ldi	r24, 0x0C	; 12
    3068:	48 16       	cp	r4, r24
    306a:	83 e0       	ldi	r24, 0x03	; 3
    306c:	58 06       	cpc	r5, r24
    306e:	71 f0       	breq	.+28     	; 0x308c <sd_raw_write+0xdc>
    3070:	9e 01       	movw	r18, r28
    3072:	24 5f       	subi	r18, 0xF4	; 244
    3074:	3c 4f       	sbci	r19, 0xFC	; 252
    3076:	c9 01       	movw	r24, r18
    3078:	b2 01       	movw	r22, r4
    307a:	a6 01       	movw	r20, r12
    307c:	0e 94 36 25 	call	0x4a6c	; 0x4a6c <memcpy>
    3080:	10 92 10 05 	sts	0x0510, r1
    3084:	6c 14       	cp	r6, r12
    3086:	7d 04       	cpc	r7, r13
    3088:	09 f4       	brne	.+2      	; 0x308c <sd_raw_write+0xdc>
    308a:	52 c0       	rjmp	.+164    	; 0x3130 <sd_raw_write+0x180>
    308c:	2a 98       	cbi	0x05, 2	; 5
    308e:	88 e1       	ldi	r24, 0x18	; 24
    3090:	b8 01       	movw	r22, r16
    3092:	a7 01       	movw	r20, r14
    3094:	0e 94 58 16 	call	0x2cb0	; 0x2cb0 <sd_raw_send_command>
    3098:	88 23       	and	r24, r24
    309a:	11 f0       	breq	.+4      	; 0x30a0 <sd_raw_write+0xf0>
    309c:	2a 9a       	sbi	0x05, 2	; 5
    309e:	4a c0       	rjmp	.+148    	; 0x3134 <sd_raw_write+0x184>
    30a0:	8e ef       	ldi	r24, 0xFE	; 254
    30a2:	8e bd       	out	0x2e, r24	; 46
    30a4:	0d b4       	in	r0, 0x2d	; 45
    30a6:	07 fe       	sbrs	r0, 7
    30a8:	fd cf       	rjmp	.-6      	; 0x30a4 <sd_raw_write+0xf4>
    30aa:	8d b5       	in	r24, 0x2d	; 45
    30ac:	8f 77       	andi	r24, 0x7F	; 127
    30ae:	8d bd       	out	0x2d, r24	; 45
    30b0:	ec e0       	ldi	r30, 0x0C	; 12
    30b2:	f3 e0       	ldi	r31, 0x03	; 3
    30b4:	81 91       	ld	r24, Z+
    30b6:	8e bd       	out	0x2e, r24	; 46
    30b8:	0d b4       	in	r0, 0x2d	; 45
    30ba:	07 fe       	sbrs	r0, 7
    30bc:	fd cf       	rjmp	.-6      	; 0x30b8 <sd_raw_write+0x108>
    30be:	8d b5       	in	r24, 0x2d	; 45
    30c0:	8f 77       	andi	r24, 0x7F	; 127
    30c2:	8d bd       	out	0x2d, r24	; 45
    30c4:	85 e0       	ldi	r24, 0x05	; 5
    30c6:	ec 30       	cpi	r30, 0x0C	; 12
    30c8:	f8 07       	cpc	r31, r24
    30ca:	a1 f7       	brne	.-24     	; 0x30b4 <sd_raw_write+0x104>
    30cc:	3e bc       	out	0x2e, r3	; 46
    30ce:	0d b4       	in	r0, 0x2d	; 45
    30d0:	07 fe       	sbrs	r0, 7
    30d2:	fd cf       	rjmp	.-6      	; 0x30ce <sd_raw_write+0x11e>
    30d4:	8d b5       	in	r24, 0x2d	; 45
    30d6:	8f 77       	andi	r24, 0x7F	; 127
    30d8:	8d bd       	out	0x2d, r24	; 45
    30da:	3e bc       	out	0x2e, r3	; 46
    30dc:	0d b4       	in	r0, 0x2d	; 45
    30de:	07 fe       	sbrs	r0, 7
    30e0:	fd cf       	rjmp	.-6      	; 0x30dc <sd_raw_write+0x12c>
    30e2:	8d b5       	in	r24, 0x2d	; 45
    30e4:	8f 77       	andi	r24, 0x7F	; 127
    30e6:	8d bd       	out	0x2d, r24	; 45
    30e8:	3e bc       	out	0x2e, r3	; 46
    30ea:	0d b4       	in	r0, 0x2d	; 45
    30ec:	07 fe       	sbrs	r0, 7
    30ee:	fd cf       	rjmp	.-6      	; 0x30ea <sd_raw_write+0x13a>
    30f0:	8d b5       	in	r24, 0x2d	; 45
    30f2:	8f 77       	andi	r24, 0x7F	; 127
    30f4:	8d bd       	out	0x2d, r24	; 45
    30f6:	8e b5       	in	r24, 0x2e	; 46
    30f8:	8f 3f       	cpi	r24, 0xFF	; 255
    30fa:	b1 f7       	brne	.-20     	; 0x30e8 <sd_raw_write+0x138>
    30fc:	8e bd       	out	0x2e, r24	; 46
    30fe:	0d b4       	in	r0, 0x2d	; 45
    3100:	07 fe       	sbrs	r0, 7
    3102:	fd cf       	rjmp	.-6      	; 0x30fe <sd_raw_write+0x14e>
    3104:	8d b5       	in	r24, 0x2d	; 45
    3106:	8f 77       	andi	r24, 0x7F	; 127
    3108:	8d bd       	out	0x2d, r24	; 45
    310a:	8e b5       	in	r24, 0x2e	; 46
    310c:	2a 9a       	sbi	0x05, 2	; 5
    310e:	4c 0c       	add	r4, r12
    3110:	5d 1c       	adc	r5, r13
    3112:	c6 01       	movw	r24, r12
    3114:	a0 e0       	ldi	r26, 0x00	; 0
    3116:	b0 e0       	ldi	r27, 0x00	; 0
    3118:	88 0e       	add	r8, r24
    311a:	99 1e       	adc	r9, r25
    311c:	aa 1e       	adc	r10, r26
    311e:	bb 1e       	adc	r11, r27
    3120:	6c 18       	sub	r6, r12
    3122:	7d 08       	sbc	r7, r13
    3124:	20 92 10 05 	sts	0x0510, r2
    3128:	61 14       	cp	r6, r1
    312a:	71 04       	cpc	r7, r1
    312c:	09 f0       	breq	.+2      	; 0x3130 <sd_raw_write+0x180>
    312e:	5b cf       	rjmp	.-330    	; 0x2fe6 <sd_raw_write+0x36>
    3130:	81 e0       	ldi	r24, 0x01	; 1
    3132:	01 c0       	rjmp	.+2      	; 0x3136 <sd_raw_write+0x186>
    3134:	80 e0       	ldi	r24, 0x00	; 0
    3136:	df 91       	pop	r29
    3138:	cf 91       	pop	r28
    313a:	1f 91       	pop	r17
    313c:	0f 91       	pop	r16
    313e:	ff 90       	pop	r15
    3140:	ef 90       	pop	r14
    3142:	df 90       	pop	r13
    3144:	cf 90       	pop	r12
    3146:	bf 90       	pop	r11
    3148:	af 90       	pop	r10
    314a:	9f 90       	pop	r9
    314c:	8f 90       	pop	r8
    314e:	7f 90       	pop	r7
    3150:	6f 90       	pop	r6
    3152:	5f 90       	pop	r5
    3154:	4f 90       	pop	r4
    3156:	3f 90       	pop	r3
    3158:	2f 90       	pop	r2
    315a:	08 95       	ret

0000315c <sd_raw_sync>:
    315c:	80 91 10 05 	lds	r24, 0x0510
    3160:	88 23       	and	r24, r24
    3162:	11 f0       	breq	.+4      	; 0x3168 <sd_raw_sync+0xc>
    3164:	81 e0       	ldi	r24, 0x01	; 1
    3166:	08 95       	ret
    3168:	60 91 0c 05 	lds	r22, 0x050C
    316c:	70 91 0d 05 	lds	r23, 0x050D
    3170:	80 91 0e 05 	lds	r24, 0x050E
    3174:	90 91 0f 05 	lds	r25, 0x050F
    3178:	4c e0       	ldi	r20, 0x0C	; 12
    317a:	53 e0       	ldi	r21, 0x03	; 3
    317c:	20 e0       	ldi	r18, 0x00	; 0
    317e:	32 e0       	ldi	r19, 0x02	; 2
    3180:	0e 94 d8 17 	call	0x2fb0	; 0x2fb0 <sd_raw_write>
    3184:	88 23       	and	r24, r24
    3186:	19 f0       	breq	.+6      	; 0x318e <sd_raw_sync+0x32>
    3188:	81 e0       	ldi	r24, 0x01	; 1
    318a:	80 93 10 05 	sts	0x0510, r24
    318e:	08 95       	ret

00003190 <sd_raw_read>:
    3190:	3f 92       	push	r3
    3192:	4f 92       	push	r4
    3194:	5f 92       	push	r5
    3196:	6f 92       	push	r6
    3198:	7f 92       	push	r7
    319a:	8f 92       	push	r8
    319c:	9f 92       	push	r9
    319e:	af 92       	push	r10
    31a0:	bf 92       	push	r11
    31a2:	cf 92       	push	r12
    31a4:	df 92       	push	r13
    31a6:	ef 92       	push	r14
    31a8:	ff 92       	push	r15
    31aa:	0f 93       	push	r16
    31ac:	1f 93       	push	r17
    31ae:	cf 93       	push	r28
    31b0:	df 93       	push	r29
    31b2:	3b 01       	movw	r6, r22
    31b4:	4c 01       	movw	r8, r24
    31b6:	6a 01       	movw	r12, r20
    31b8:	29 01       	movw	r4, r18
    31ba:	33 24       	eor	r3, r3
    31bc:	3a 94       	dec	r3
    31be:	8f c0       	rjmp	.+286    	; 0x32de <sd_raw_read+0x14e>
    31c0:	1f ef       	ldi	r17, 0xFF	; 255
    31c2:	a1 2e       	mov	r10, r17
    31c4:	11 e0       	ldi	r17, 0x01	; 1
    31c6:	b1 2e       	mov	r11, r17
    31c8:	a6 20       	and	r10, r6
    31ca:	b7 20       	and	r11, r7
    31cc:	c5 01       	movw	r24, r10
    31ce:	a0 e0       	ldi	r26, 0x00	; 0
    31d0:	b0 e0       	ldi	r27, 0x00	; 0
    31d2:	84 01       	movw	r16, r8
    31d4:	73 01       	movw	r14, r6
    31d6:	e8 1a       	sub	r14, r24
    31d8:	f9 0a       	sbc	r15, r25
    31da:	0a 0b       	sbc	r16, r26
    31dc:	1b 0b       	sbc	r17, r27
    31de:	c0 e0       	ldi	r28, 0x00	; 0
    31e0:	d2 e0       	ldi	r29, 0x02	; 2
    31e2:	ca 19       	sub	r28, r10
    31e4:	db 09       	sbc	r29, r11
    31e6:	4c 16       	cp	r4, r28
    31e8:	5d 06       	cpc	r5, r29
    31ea:	08 f4       	brcc	.+2      	; 0x31ee <sd_raw_read+0x5e>
    31ec:	e2 01       	movw	r28, r4
    31ee:	80 91 0c 05 	lds	r24, 0x050C
    31f2:	90 91 0d 05 	lds	r25, 0x050D
    31f6:	a0 91 0e 05 	lds	r26, 0x050E
    31fa:	b0 91 0f 05 	lds	r27, 0x050F
    31fe:	e8 16       	cp	r14, r24
    3200:	f9 06       	cpc	r15, r25
    3202:	0a 07       	cpc	r16, r26
    3204:	1b 07       	cpc	r17, r27
    3206:	09 f4       	brne	.+2      	; 0x320a <sd_raw_read+0x7a>
    3208:	57 c0       	rjmp	.+174    	; 0x32b8 <sd_raw_read+0x128>
    320a:	0e 94 ae 18 	call	0x315c	; 0x315c <sd_raw_sync>
    320e:	88 23       	and	r24, r24
    3210:	09 f4       	brne	.+2      	; 0x3214 <sd_raw_read+0x84>
    3212:	6a c0       	rjmp	.+212    	; 0x32e8 <sd_raw_read+0x158>
    3214:	2a 98       	cbi	0x05, 2	; 5
    3216:	81 e1       	ldi	r24, 0x11	; 17
    3218:	b8 01       	movw	r22, r16
    321a:	a7 01       	movw	r20, r14
    321c:	0e 94 58 16 	call	0x2cb0	; 0x2cb0 <sd_raw_send_command>
    3220:	88 23       	and	r24, r24
    3222:	19 f0       	breq	.+6      	; 0x322a <sd_raw_read+0x9a>
    3224:	2a 9a       	sbi	0x05, 2	; 5
    3226:	80 e0       	ldi	r24, 0x00	; 0
    3228:	5f c0       	rjmp	.+190    	; 0x32e8 <sd_raw_read+0x158>
    322a:	3e bc       	out	0x2e, r3	; 46
    322c:	0d b4       	in	r0, 0x2d	; 45
    322e:	07 fe       	sbrs	r0, 7
    3230:	fd cf       	rjmp	.-6      	; 0x322c <sd_raw_read+0x9c>
    3232:	8d b5       	in	r24, 0x2d	; 45
    3234:	8f 77       	andi	r24, 0x7F	; 127
    3236:	8d bd       	out	0x2d, r24	; 45
    3238:	8e b5       	in	r24, 0x2e	; 46
    323a:	8e 3f       	cpi	r24, 0xFE	; 254
    323c:	b1 f7       	brne	.-20     	; 0x322a <sd_raw_read+0x9a>
    323e:	ec e0       	ldi	r30, 0x0C	; 12
    3240:	f3 e0       	ldi	r31, 0x03	; 3
    3242:	3e bc       	out	0x2e, r3	; 46
    3244:	0d b4       	in	r0, 0x2d	; 45
    3246:	07 fe       	sbrs	r0, 7
    3248:	fd cf       	rjmp	.-6      	; 0x3244 <sd_raw_read+0xb4>
    324a:	8d b5       	in	r24, 0x2d	; 45
    324c:	8f 77       	andi	r24, 0x7F	; 127
    324e:	8d bd       	out	0x2d, r24	; 45
    3250:	8e b5       	in	r24, 0x2e	; 46
    3252:	80 83       	st	Z, r24
    3254:	85 e0       	ldi	r24, 0x05	; 5
    3256:	eb 30       	cpi	r30, 0x0B	; 11
    3258:	f8 07       	cpc	r31, r24
    325a:	11 f0       	breq	.+4      	; 0x3260 <sd_raw_read+0xd0>
    325c:	31 96       	adiw	r30, 0x01	; 1
    325e:	f1 cf       	rjmp	.-30     	; 0x3242 <sd_raw_read+0xb2>
    3260:	e0 92 0c 05 	sts	0x050C, r14
    3264:	f0 92 0d 05 	sts	0x050D, r15
    3268:	00 93 0e 05 	sts	0x050E, r16
    326c:	10 93 0f 05 	sts	0x050F, r17
    3270:	95 01       	movw	r18, r10
    3272:	24 5f       	subi	r18, 0xF4	; 244
    3274:	3c 4f       	sbci	r19, 0xFC	; 252
    3276:	c6 01       	movw	r24, r12
    3278:	b9 01       	movw	r22, r18
    327a:	ae 01       	movw	r20, r28
    327c:	0e 94 36 25 	call	0x4a6c	; 0x4a6c <memcpy>
    3280:	3e bc       	out	0x2e, r3	; 46
    3282:	0d b4       	in	r0, 0x2d	; 45
    3284:	07 fe       	sbrs	r0, 7
    3286:	fd cf       	rjmp	.-6      	; 0x3282 <sd_raw_read+0xf2>
    3288:	8d b5       	in	r24, 0x2d	; 45
    328a:	8f 77       	andi	r24, 0x7F	; 127
    328c:	8d bd       	out	0x2d, r24	; 45
    328e:	8e b5       	in	r24, 0x2e	; 46
    3290:	3e bc       	out	0x2e, r3	; 46
    3292:	0d b4       	in	r0, 0x2d	; 45
    3294:	07 fe       	sbrs	r0, 7
    3296:	fd cf       	rjmp	.-6      	; 0x3292 <sd_raw_read+0x102>
    3298:	8d b5       	in	r24, 0x2d	; 45
    329a:	8f 77       	andi	r24, 0x7F	; 127
    329c:	8d bd       	out	0x2d, r24	; 45
    329e:	8e b5       	in	r24, 0x2e	; 46
    32a0:	2a 9a       	sbi	0x05, 2	; 5
    32a2:	3e bc       	out	0x2e, r3	; 46
    32a4:	0d b4       	in	r0, 0x2d	; 45
    32a6:	07 fe       	sbrs	r0, 7
    32a8:	fd cf       	rjmp	.-6      	; 0x32a4 <sd_raw_read+0x114>
    32aa:	cc 0e       	add	r12, r28
    32ac:	dd 1e       	adc	r13, r29
    32ae:	8d b5       	in	r24, 0x2d	; 45
    32b0:	8f 77       	andi	r24, 0x7F	; 127
    32b2:	8d bd       	out	0x2d, r24	; 45
    32b4:	8e b5       	in	r24, 0x2e	; 46
    32b6:	0a c0       	rjmp	.+20     	; 0x32cc <sd_raw_read+0x13c>
    32b8:	95 01       	movw	r18, r10
    32ba:	24 5f       	subi	r18, 0xF4	; 244
    32bc:	3c 4f       	sbci	r19, 0xFC	; 252
    32be:	c6 01       	movw	r24, r12
    32c0:	b9 01       	movw	r22, r18
    32c2:	ae 01       	movw	r20, r28
    32c4:	0e 94 36 25 	call	0x4a6c	; 0x4a6c <memcpy>
    32c8:	cc 0e       	add	r12, r28
    32ca:	dd 1e       	adc	r13, r29
    32cc:	4c 1a       	sub	r4, r28
    32ce:	5d 0a       	sbc	r5, r29
    32d0:	ce 01       	movw	r24, r28
    32d2:	a0 e0       	ldi	r26, 0x00	; 0
    32d4:	b0 e0       	ldi	r27, 0x00	; 0
    32d6:	68 0e       	add	r6, r24
    32d8:	79 1e       	adc	r7, r25
    32da:	8a 1e       	adc	r8, r26
    32dc:	9b 1e       	adc	r9, r27
    32de:	41 14       	cp	r4, r1
    32e0:	51 04       	cpc	r5, r1
    32e2:	09 f0       	breq	.+2      	; 0x32e6 <sd_raw_read+0x156>
    32e4:	6d cf       	rjmp	.-294    	; 0x31c0 <sd_raw_read+0x30>
    32e6:	81 e0       	ldi	r24, 0x01	; 1
    32e8:	df 91       	pop	r29
    32ea:	cf 91       	pop	r28
    32ec:	1f 91       	pop	r17
    32ee:	0f 91       	pop	r16
    32f0:	ff 90       	pop	r15
    32f2:	ef 90       	pop	r14
    32f4:	df 90       	pop	r13
    32f6:	cf 90       	pop	r12
    32f8:	bf 90       	pop	r11
    32fa:	af 90       	pop	r10
    32fc:	9f 90       	pop	r9
    32fe:	8f 90       	pop	r8
    3300:	7f 90       	pop	r7
    3302:	6f 90       	pop	r6
    3304:	5f 90       	pop	r5
    3306:	4f 90       	pop	r4
    3308:	3f 90       	pop	r3
    330a:	08 95       	ret

0000330c <sd_raw_read_interval>:
    330c:	2f 92       	push	r2
    330e:	3f 92       	push	r3
    3310:	4f 92       	push	r4
    3312:	5f 92       	push	r5
    3314:	6f 92       	push	r6
    3316:	7f 92       	push	r7
    3318:	8f 92       	push	r8
    331a:	9f 92       	push	r9
    331c:	af 92       	push	r10
    331e:	bf 92       	push	r11
    3320:	cf 92       	push	r12
    3322:	df 92       	push	r13
    3324:	ef 92       	push	r14
    3326:	ff 92       	push	r15
    3328:	0f 93       	push	r16
    332a:	1f 93       	push	r17
    332c:	df 93       	push	r29
    332e:	cf 93       	push	r28
    3330:	00 d0       	rcall	.+0      	; 0x3332 <sd_raw_read_interval+0x26>
    3332:	00 d0       	rcall	.+0      	; 0x3334 <sd_raw_read_interval+0x28>
    3334:	cd b7       	in	r28, 0x3d	; 61
    3336:	de b7       	in	r29, 0x3e	; 62
    3338:	4b 01       	movw	r8, r22
    333a:	5c 01       	movw	r10, r24
    333c:	3a 01       	movw	r6, r20
    333e:	3c 83       	std	Y+4, r19	; 0x04
    3340:	2b 83       	std	Y+3, r18	; 0x03
    3342:	27 01       	movw	r4, r14
    3344:	da 82       	std	Y+2, r13	; 0x02
    3346:	c9 82       	std	Y+1, r12	; 0x01
    3348:	41 15       	cp	r20, r1
    334a:	51 05       	cpc	r21, r1
    334c:	a9 f1       	breq	.+106    	; 0x33b8 <sd_raw_read_interval+0xac>
    334e:	21 15       	cp	r18, r1
    3350:	31 05       	cpc	r19, r1
    3352:	91 f1       	breq	.+100    	; 0x33b8 <sd_raw_read_interval+0xac>
    3354:	02 17       	cp	r16, r18
    3356:	13 07       	cpc	r17, r19
    3358:	78 f1       	brcs	.+94     	; 0x33b8 <sd_raw_read_interval+0xac>
    335a:	e1 14       	cp	r14, r1
    335c:	f1 04       	cpc	r15, r1
    335e:	61 f1       	breq	.+88     	; 0x33b8 <sd_raw_read_interval+0xac>
    3360:	19 01       	movw	r2, r18
    3362:	30 94       	com	r3
    3364:	21 94       	neg	r2
    3366:	31 08       	sbc	r3, r1
    3368:	33 94       	inc	r3
    336a:	02 1b       	sub	r16, r18
    336c:	13 0b       	sbc	r17, r19
    336e:	69 01       	movw	r12, r18
    3370:	ee 24       	eor	r14, r14
    3372:	ff 24       	eor	r15, r15
    3374:	c5 01       	movw	r24, r10
    3376:	b4 01       	movw	r22, r8
    3378:	a3 01       	movw	r20, r6
    337a:	2b 81       	ldd	r18, Y+3	; 0x03
    337c:	3c 81       	ldd	r19, Y+4	; 0x04
    337e:	0e 94 c8 18 	call	0x3190	; 0x3190 <sd_raw_read>
    3382:	88 23       	and	r24, r24
    3384:	c9 f0       	breq	.+50     	; 0x33b8 <sd_raw_read_interval+0xac>
    3386:	c3 01       	movw	r24, r6
    3388:	b5 01       	movw	r22, r10
    338a:	a4 01       	movw	r20, r8
    338c:	29 81       	ldd	r18, Y+1	; 0x01
    338e:	3a 81       	ldd	r19, Y+2	; 0x02
    3390:	f2 01       	movw	r30, r4
    3392:	09 95       	icall
    3394:	88 23       	and	r24, r24
    3396:	91 f0       	breq	.+36     	; 0x33bc <sd_raw_read_interval+0xb0>
    3398:	02 0d       	add	r16, r2
    339a:	13 1d       	adc	r17, r3
    339c:	8b 81       	ldd	r24, Y+3	; 0x03
    339e:	9c 81       	ldd	r25, Y+4	; 0x04
    33a0:	80 0f       	add	r24, r16
    33a2:	91 1f       	adc	r25, r17
    33a4:	2b 81       	ldd	r18, Y+3	; 0x03
    33a6:	3c 81       	ldd	r19, Y+4	; 0x04
    33a8:	82 17       	cp	r24, r18
    33aa:	93 07       	cpc	r25, r19
    33ac:	38 f0       	brcs	.+14     	; 0x33bc <sd_raw_read_interval+0xb0>
    33ae:	8c 0c       	add	r8, r12
    33b0:	9d 1c       	adc	r9, r13
    33b2:	ae 1c       	adc	r10, r14
    33b4:	bf 1c       	adc	r11, r15
    33b6:	de cf       	rjmp	.-68     	; 0x3374 <sd_raw_read_interval+0x68>
    33b8:	80 e0       	ldi	r24, 0x00	; 0
    33ba:	01 c0       	rjmp	.+2      	; 0x33be <sd_raw_read_interval+0xb2>
    33bc:	81 e0       	ldi	r24, 0x01	; 1
    33be:	0f 90       	pop	r0
    33c0:	0f 90       	pop	r0
    33c2:	0f 90       	pop	r0
    33c4:	0f 90       	pop	r0
    33c6:	cf 91       	pop	r28
    33c8:	df 91       	pop	r29
    33ca:	1f 91       	pop	r17
    33cc:	0f 91       	pop	r16
    33ce:	ff 90       	pop	r15
    33d0:	ef 90       	pop	r14
    33d2:	df 90       	pop	r13
    33d4:	cf 90       	pop	r12
    33d6:	bf 90       	pop	r11
    33d8:	af 90       	pop	r10
    33da:	9f 90       	pop	r9
    33dc:	8f 90       	pop	r8
    33de:	7f 90       	pop	r7
    33e0:	6f 90       	pop	r6
    33e2:	5f 90       	pop	r5
    33e4:	4f 90       	pop	r4
    33e6:	3f 90       	pop	r3
    33e8:	2f 90       	pop	r2
    33ea:	08 95       	ret

000033ec <sd_raw_init>:
    33ec:	0f 93       	push	r16
    33ee:	1f 93       	push	r17
    33f0:	cf 93       	push	r28
    33f2:	df 93       	push	r29
    33f4:	23 9a       	sbi	0x04, 3	; 4
    33f6:	25 9a       	sbi	0x04, 5	; 4
    33f8:	22 9a       	sbi	0x04, 2	; 4
    33fa:	24 98       	cbi	0x04, 4	; 4
    33fc:	2a 9a       	sbi	0x05, 2	; 5
    33fe:	83 e5       	ldi	r24, 0x53	; 83
    3400:	8c bd       	out	0x2c, r24	; 44
    3402:	8d b5       	in	r24, 0x2d	; 45
    3404:	8e 7f       	andi	r24, 0xFE	; 254
    3406:	8d bd       	out	0x2d, r24	; 45
    3408:	10 92 11 05 	sts	0x0511, r1
    340c:	90 e0       	ldi	r25, 0x00	; 0
    340e:	2f ef       	ldi	r18, 0xFF	; 255
    3410:	2e bd       	out	0x2e, r18	; 46
    3412:	0d b4       	in	r0, 0x2d	; 45
    3414:	07 fe       	sbrs	r0, 7
    3416:	fd cf       	rjmp	.-6      	; 0x3412 <sd_raw_init+0x26>
    3418:	8d b5       	in	r24, 0x2d	; 45
    341a:	8f 77       	andi	r24, 0x7F	; 127
    341c:	8d bd       	out	0x2d, r24	; 45
    341e:	8e b5       	in	r24, 0x2e	; 46
    3420:	9f 5f       	subi	r25, 0xFF	; 255
    3422:	9a 30       	cpi	r25, 0x0A	; 10
    3424:	a9 f7       	brne	.-22     	; 0x3410 <sd_raw_init+0x24>
    3426:	2a 98       	cbi	0x05, 2	; 5
    3428:	c0 e0       	ldi	r28, 0x00	; 0
    342a:	d0 e0       	ldi	r29, 0x00	; 0
    342c:	80 e0       	ldi	r24, 0x00	; 0
    342e:	40 e0       	ldi	r20, 0x00	; 0
    3430:	50 e0       	ldi	r21, 0x00	; 0
    3432:	60 e0       	ldi	r22, 0x00	; 0
    3434:	70 e0       	ldi	r23, 0x00	; 0
    3436:	0e 94 58 16 	call	0x2cb0	; 0x2cb0 <sd_raw_send_command>
    343a:	18 2f       	mov	r17, r24
    343c:	81 30       	cpi	r24, 0x01	; 1
    343e:	39 f0       	breq	.+14     	; 0x344e <sd_raw_init+0x62>
    3440:	81 e0       	ldi	r24, 0x01	; 1
    3442:	cf 3f       	cpi	r28, 0xFF	; 255
    3444:	d8 07       	cpc	r29, r24
    3446:	09 f4       	brne	.+2      	; 0x344a <sd_raw_init+0x5e>
    3448:	40 c0       	rjmp	.+128    	; 0x34ca <sd_raw_init+0xde>
    344a:	21 96       	adiw	r28, 0x01	; 1
    344c:	ef cf       	rjmp	.-34     	; 0x342c <sd_raw_init+0x40>
    344e:	87 e3       	ldi	r24, 0x37	; 55
    3450:	40 e0       	ldi	r20, 0x00	; 0
    3452:	50 e0       	ldi	r21, 0x00	; 0
    3454:	60 e0       	ldi	r22, 0x00	; 0
    3456:	70 e0       	ldi	r23, 0x00	; 0
    3458:	0e 94 58 16 	call	0x2cb0	; 0x2cb0 <sd_raw_send_command>
    345c:	89 e2       	ldi	r24, 0x29	; 41
    345e:	40 e0       	ldi	r20, 0x00	; 0
    3460:	50 e0       	ldi	r21, 0x00	; 0
    3462:	60 e0       	ldi	r22, 0x00	; 0
    3464:	70 e0       	ldi	r23, 0x00	; 0
    3466:	0e 94 58 16 	call	0x2cb0	; 0x2cb0 <sd_raw_send_command>
    346a:	82 fd       	sbrc	r24, 2
    346c:	02 c0       	rjmp	.+4      	; 0x3472 <sd_raw_init+0x86>
    346e:	10 93 11 05 	sts	0x0511, r17
    3472:	80 91 11 05 	lds	r24, 0x0511
    3476:	08 2f       	mov	r16, r24
    3478:	10 e0       	ldi	r17, 0x00	; 0
    347a:	03 70       	andi	r16, 0x03	; 3
    347c:	10 70       	andi	r17, 0x00	; 0
    347e:	c0 e0       	ldi	r28, 0x00	; 0
    3480:	d0 e0       	ldi	r29, 0x00	; 0
    3482:	01 15       	cp	r16, r1
    3484:	11 05       	cpc	r17, r1
    3486:	49 f0       	breq	.+18     	; 0x349a <sd_raw_init+0xae>
    3488:	87 e3       	ldi	r24, 0x37	; 55
    348a:	40 e0       	ldi	r20, 0x00	; 0
    348c:	50 e0       	ldi	r21, 0x00	; 0
    348e:	60 e0       	ldi	r22, 0x00	; 0
    3490:	70 e0       	ldi	r23, 0x00	; 0
    3492:	0e 94 58 16 	call	0x2cb0	; 0x2cb0 <sd_raw_send_command>
    3496:	89 e2       	ldi	r24, 0x29	; 41
    3498:	01 c0       	rjmp	.+2      	; 0x349c <sd_raw_init+0xb0>
    349a:	81 e0       	ldi	r24, 0x01	; 1
    349c:	40 e0       	ldi	r20, 0x00	; 0
    349e:	50 e0       	ldi	r21, 0x00	; 0
    34a0:	60 e0       	ldi	r22, 0x00	; 0
    34a2:	70 e0       	ldi	r23, 0x00	; 0
    34a4:	0e 94 58 16 	call	0x2cb0	; 0x2cb0 <sd_raw_send_command>
    34a8:	80 ff       	sbrs	r24, 0
    34aa:	06 c0       	rjmp	.+12     	; 0x34b8 <sd_raw_init+0xcc>
    34ac:	8f e7       	ldi	r24, 0x7F	; 127
    34ae:	cf 3f       	cpi	r28, 0xFF	; 255
    34b0:	d8 07       	cpc	r29, r24
    34b2:	59 f0       	breq	.+22     	; 0x34ca <sd_raw_init+0xde>
    34b4:	21 96       	adiw	r28, 0x01	; 1
    34b6:	e5 cf       	rjmp	.-54     	; 0x3482 <sd_raw_init+0x96>
    34b8:	80 e1       	ldi	r24, 0x10	; 16
    34ba:	40 e0       	ldi	r20, 0x00	; 0
    34bc:	52 e0       	ldi	r21, 0x02	; 2
    34be:	60 e0       	ldi	r22, 0x00	; 0
    34c0:	70 e0       	ldi	r23, 0x00	; 0
    34c2:	0e 94 58 16 	call	0x2cb0	; 0x2cb0 <sd_raw_send_command>
    34c6:	88 23       	and	r24, r24
    34c8:	19 f0       	breq	.+6      	; 0x34d0 <sd_raw_init+0xe4>
    34ca:	2a 9a       	sbi	0x05, 2	; 5
    34cc:	80 e0       	ldi	r24, 0x00	; 0
    34ce:	22 c0       	rjmp	.+68     	; 0x3514 <sd_raw_init+0x128>
    34d0:	2a 9a       	sbi	0x05, 2	; 5
    34d2:	8c b5       	in	r24, 0x2c	; 44
    34d4:	8c 7f       	andi	r24, 0xFC	; 252
    34d6:	8c bd       	out	0x2c, r24	; 44
    34d8:	8d b5       	in	r24, 0x2d	; 45
    34da:	81 60       	ori	r24, 0x01	; 1
    34dc:	8d bd       	out	0x2d, r24	; 45
    34de:	8f ef       	ldi	r24, 0xFF	; 255
    34e0:	9f ef       	ldi	r25, 0xFF	; 255
    34e2:	af ef       	ldi	r26, 0xFF	; 255
    34e4:	bf ef       	ldi	r27, 0xFF	; 255
    34e6:	80 93 0c 05 	sts	0x050C, r24
    34ea:	90 93 0d 05 	sts	0x050D, r25
    34ee:	a0 93 0e 05 	sts	0x050E, r26
    34f2:	b0 93 0f 05 	sts	0x050F, r27
    34f6:	81 e0       	ldi	r24, 0x01	; 1
    34f8:	80 93 10 05 	sts	0x0510, r24
    34fc:	60 e0       	ldi	r22, 0x00	; 0
    34fe:	70 e0       	ldi	r23, 0x00	; 0
    3500:	80 e0       	ldi	r24, 0x00	; 0
    3502:	90 e0       	ldi	r25, 0x00	; 0
    3504:	4c e0       	ldi	r20, 0x0C	; 12
    3506:	53 e0       	ldi	r21, 0x03	; 3
    3508:	20 e0       	ldi	r18, 0x00	; 0
    350a:	32 e0       	ldi	r19, 0x02	; 2
    350c:	0e 94 c8 18 	call	0x3190	; 0x3190 <sd_raw_read>
    3510:	81 11       	cpse	r24, r1
    3512:	81 e0       	ldi	r24, 0x01	; 1
    3514:	df 91       	pop	r29
    3516:	cf 91       	pop	r28
    3518:	1f 91       	pop	r17
    351a:	0f 91       	pop	r16
    351c:	08 95       	ret

0000351e <sd_raw_write_interval>:
    351e:	4f 92       	push	r4
    3520:	5f 92       	push	r5
    3522:	6f 92       	push	r6
    3524:	7f 92       	push	r7
    3526:	8f 92       	push	r8
    3528:	9f 92       	push	r9
    352a:	af 92       	push	r10
    352c:	bf 92       	push	r11
    352e:	cf 92       	push	r12
    3530:	df 92       	push	r13
    3532:	ef 92       	push	r14
    3534:	ff 92       	push	r15
    3536:	0f 93       	push	r16
    3538:	1f 93       	push	r17
    353a:	cf 93       	push	r28
    353c:	df 93       	push	r29
    353e:	5b 01       	movw	r10, r22
    3540:	6c 01       	movw	r12, r24
    3542:	4a 01       	movw	r8, r20
    3544:	e9 01       	movw	r28, r18
    3546:	38 01       	movw	r6, r16
    3548:	27 01       	movw	r4, r14
    354a:	41 15       	cp	r20, r1
    354c:	51 05       	cpc	r21, r1
    354e:	71 f1       	breq	.+92     	; 0x35ac <sd_raw_write_interval+0x8e>
    3550:	01 15       	cp	r16, r1
    3552:	11 05       	cpc	r17, r1
    3554:	59 f1       	breq	.+86     	; 0x35ac <sd_raw_write_interval+0x8e>
    3556:	ff 24       	eor	r15, r15
    3558:	21 15       	cp	r18, r1
    355a:	31 05       	cpc	r19, r1
    355c:	11 f5       	brne	.+68     	; 0x35a2 <sd_raw_write_interval+0x84>
    355e:	ff 24       	eor	r15, r15
    3560:	f3 94       	inc	r15
    3562:	1f c0       	rjmp	.+62     	; 0x35a2 <sd_raw_write_interval+0x84>
    3564:	c4 01       	movw	r24, r8
    3566:	b6 01       	movw	r22, r12
    3568:	a5 01       	movw	r20, r10
    356a:	92 01       	movw	r18, r4
    356c:	f3 01       	movw	r30, r6
    356e:	09 95       	icall
    3570:	8c 01       	movw	r16, r24
    3572:	00 97       	sbiw	r24, 0x00	; 0
    3574:	e9 f0       	breq	.+58     	; 0x35b0 <sd_raw_write_interval+0x92>
    3576:	ff 20       	and	r15, r15
    3578:	19 f4       	brne	.+6      	; 0x3580 <sd_raw_write_interval+0x62>
    357a:	c8 17       	cp	r28, r24
    357c:	d9 07       	cpc	r29, r25
    357e:	b0 f0       	brcs	.+44     	; 0x35ac <sd_raw_write_interval+0x8e>
    3580:	c6 01       	movw	r24, r12
    3582:	b5 01       	movw	r22, r10
    3584:	a4 01       	movw	r20, r8
    3586:	98 01       	movw	r18, r16
    3588:	0e 94 d8 17 	call	0x2fb0	; 0x2fb0 <sd_raw_write>
    358c:	88 23       	and	r24, r24
    358e:	71 f0       	breq	.+28     	; 0x35ac <sd_raw_write_interval+0x8e>
    3590:	c8 01       	movw	r24, r16
    3592:	a0 e0       	ldi	r26, 0x00	; 0
    3594:	b0 e0       	ldi	r27, 0x00	; 0
    3596:	a8 0e       	add	r10, r24
    3598:	b9 1e       	adc	r11, r25
    359a:	ca 1e       	adc	r12, r26
    359c:	db 1e       	adc	r13, r27
    359e:	c0 1b       	sub	r28, r16
    35a0:	d1 0b       	sbc	r29, r17
    35a2:	ff 20       	and	r15, r15
    35a4:	f9 f6       	brne	.-66     	; 0x3564 <sd_raw_write_interval+0x46>
    35a6:	20 97       	sbiw	r28, 0x00	; 0
    35a8:	e9 f6       	brne	.-70     	; 0x3564 <sd_raw_write_interval+0x46>
    35aa:	02 c0       	rjmp	.+4      	; 0x35b0 <sd_raw_write_interval+0x92>
    35ac:	80 e0       	ldi	r24, 0x00	; 0
    35ae:	01 c0       	rjmp	.+2      	; 0x35b2 <sd_raw_write_interval+0x94>
    35b0:	81 e0       	ldi	r24, 0x01	; 1
    35b2:	df 91       	pop	r29
    35b4:	cf 91       	pop	r28
    35b6:	1f 91       	pop	r17
    35b8:	0f 91       	pop	r16
    35ba:	ff 90       	pop	r15
    35bc:	ef 90       	pop	r14
    35be:	df 90       	pop	r13
    35c0:	cf 90       	pop	r12
    35c2:	bf 90       	pop	r11
    35c4:	af 90       	pop	r10
    35c6:	9f 90       	pop	r9
    35c8:	8f 90       	pop	r8
    35ca:	7f 90       	pop	r7
    35cc:	6f 90       	pop	r6
    35ce:	5f 90       	pop	r5
    35d0:	4f 90       	pop	r4
    35d2:	08 95       	ret

000035d4 <find_file_in_dir>:
    35d4:	ef 92       	push	r14
    35d6:	ff 92       	push	r15
    35d8:	0f 93       	push	r16
    35da:	1f 93       	push	r17
    35dc:	cf 93       	push	r28
    35de:	df 93       	push	r29
    35e0:	eb 01       	movw	r28, r22
    35e2:	8a 01       	movw	r16, r20
    35e4:	79 01       	movw	r14, r18
    35e6:	0b c0       	rjmp	.+22     	; 0x35fe <find_file_in_dir+0x2a>
    35e8:	c7 01       	movw	r24, r14
    35ea:	b8 01       	movw	r22, r16
    35ec:	0e 94 51 25 	call	0x4aa2	; 0x4aa2 <strcmp>
    35f0:	00 97       	sbiw	r24, 0x00	; 0
    35f2:	29 f4       	brne	.+10     	; 0x35fe <find_file_in_dir+0x2a>
    35f4:	ce 01       	movw	r24, r28
    35f6:	0e 94 7d 08 	call	0x10fa	; 0x10fa <fat_reset_dir>
    35fa:	81 e0       	ldi	r24, 0x01	; 1
    35fc:	06 c0       	rjmp	.+12     	; 0x360a <find_file_in_dir+0x36>
    35fe:	ce 01       	movw	r24, r28
    3600:	b7 01       	movw	r22, r14
    3602:	0e 94 39 0a 	call	0x1472	; 0x1472 <fat_read_dir>
    3606:	88 23       	and	r24, r24
    3608:	79 f7       	brne	.-34     	; 0x35e8 <find_file_in_dir+0x14>
    360a:	df 91       	pop	r29
    360c:	cf 91       	pop	r28
    360e:	1f 91       	pop	r17
    3610:	0f 91       	pop	r16
    3612:	ff 90       	pop	r15
    3614:	ef 90       	pop	r14
    3616:	08 95       	ret

00003618 <delete_file>:
    3618:	ef 92       	push	r14
    361a:	ff 92       	push	r15
    361c:	0f 93       	push	r16
    361e:	1f 93       	push	r17
    3620:	df 93       	push	r29
    3622:	cf 93       	push	r28
    3624:	cd b7       	in	r28, 0x3d	; 61
    3626:	de b7       	in	r29, 0x3e	; 62
    3628:	ab 97       	sbiw	r28, 0x2b	; 43
    362a:	0f b6       	in	r0, 0x3f	; 63
    362c:	f8 94       	cli
    362e:	de bf       	out	0x3e, r29	; 62
    3630:	0f be       	out	0x3f, r0	; 63
    3632:	cd bf       	out	0x3d, r28	; 61
    3634:	7c 01       	movw	r14, r24
    3636:	60 91 42 05 	lds	r22, 0x0542
    363a:	70 91 43 05 	lds	r23, 0x0543
    363e:	80 91 3e 05 	lds	r24, 0x053E
    3642:	90 91 3f 05 	lds	r25, 0x053F
    3646:	a7 01       	movw	r20, r14
    3648:	8e 01       	movw	r16, r28
    364a:	0f 5f       	subi	r16, 0xFF	; 255
    364c:	1f 4f       	sbci	r17, 0xFF	; 255
    364e:	98 01       	movw	r18, r16
    3650:	0e 94 ea 1a 	call	0x35d4	; 0x35d4 <find_file_in_dir>
    3654:	88 23       	and	r24, r24
    3656:	61 f0       	breq	.+24     	; 0x3670 <delete_file+0x58>
    3658:	80 91 3e 05 	lds	r24, 0x053E
    365c:	90 91 3f 05 	lds	r25, 0x053F
    3660:	b8 01       	movw	r22, r16
    3662:	0e 94 8a 08 	call	0x1114	; 0x1114 <fat_delete_file>
    3666:	88 23       	and	r24, r24
    3668:	19 f0       	breq	.+6      	; 0x3670 <delete_file+0x58>
    366a:	20 e0       	ldi	r18, 0x00	; 0
    366c:	30 e0       	ldi	r19, 0x00	; 0
    366e:	0c c0       	rjmp	.+24     	; 0x3688 <delete_file+0x70>
    3670:	8a ec       	ldi	r24, 0xCA	; 202
    3672:	90 e0       	ldi	r25, 0x00	; 0
    3674:	0e 94 7d 1f 	call	0x3efa	; 0x3efa <uart_puts_p>
    3678:	c7 01       	movw	r24, r14
    367a:	0e 94 70 1f 	call	0x3ee0	; 0x3ee0 <uart_puts>
    367e:	8a e0       	ldi	r24, 0x0A	; 10
    3680:	0e 94 81 1e 	call	0x3d02	; 0x3d02 <uart_putc>
    3684:	2f ef       	ldi	r18, 0xFF	; 255
    3686:	3f ef       	ldi	r19, 0xFF	; 255
    3688:	c9 01       	movw	r24, r18
    368a:	ab 96       	adiw	r28, 0x2b	; 43
    368c:	0f b6       	in	r0, 0x3f	; 63
    368e:	f8 94       	cli
    3690:	de bf       	out	0x3e, r29	; 62
    3692:	0f be       	out	0x3f, r0	; 63
    3694:	cd bf       	out	0x3d, r28	; 61
    3696:	cf 91       	pop	r28
    3698:	df 91       	pop	r29
    369a:	1f 91       	pop	r17
    369c:	0f 91       	pop	r16
    369e:	ff 90       	pop	r15
    36a0:	ef 90       	pop	r14
    36a2:	08 95       	ret

000036a4 <open_file_in_dir>:
    36a4:	ef 92       	push	r14
    36a6:	ff 92       	push	r15
    36a8:	0f 93       	push	r16
    36aa:	1f 93       	push	r17
    36ac:	df 93       	push	r29
    36ae:	cf 93       	push	r28
    36b0:	cd b7       	in	r28, 0x3d	; 61
    36b2:	de b7       	in	r29, 0x3e	; 62
    36b4:	ab 97       	sbiw	r28, 0x2b	; 43
    36b6:	0f b6       	in	r0, 0x3f	; 63
    36b8:	f8 94       	cli
    36ba:	de bf       	out	0x3e, r29	; 62
    36bc:	0f be       	out	0x3f, r0	; 63
    36be:	cd bf       	out	0x3d, r28	; 61
    36c0:	8c 01       	movw	r16, r24
    36c2:	7e 01       	movw	r14, r28
    36c4:	08 94       	sec
    36c6:	e1 1c       	adc	r14, r1
    36c8:	f1 1c       	adc	r15, r1
    36ca:	97 01       	movw	r18, r14
    36cc:	0e 94 ea 1a 	call	0x35d4	; 0x35d4 <find_file_in_dir>
    36d0:	88 23       	and	r24, r24
    36d2:	19 f4       	brne	.+6      	; 0x36da <open_file_in_dir+0x36>
    36d4:	20 e0       	ldi	r18, 0x00	; 0
    36d6:	30 e0       	ldi	r19, 0x00	; 0
    36d8:	05 c0       	rjmp	.+10     	; 0x36e4 <open_file_in_dir+0x40>
    36da:	c8 01       	movw	r24, r16
    36dc:	b7 01       	movw	r22, r14
    36de:	0e 94 a9 14 	call	0x2952	; 0x2952 <fat_open_file>
    36e2:	9c 01       	movw	r18, r24
    36e4:	c9 01       	movw	r24, r18
    36e6:	ab 96       	adiw	r28, 0x2b	; 43
    36e8:	0f b6       	in	r0, 0x3f	; 63
    36ea:	f8 94       	cli
    36ec:	de bf       	out	0x3e, r29	; 62
    36ee:	0f be       	out	0x3f, r0	; 63
    36f0:	cd bf       	out	0x3d, r28	; 61
    36f2:	cf 91       	pop	r28
    36f4:	df 91       	pop	r29
    36f6:	1f 91       	pop	r17
    36f8:	0f 91       	pop	r16
    36fa:	ff 90       	pop	r15
    36fc:	ef 90       	pop	r14
    36fe:	08 95       	ret

00003700 <display_file>:
    3700:	af 92       	push	r10
    3702:	bf 92       	push	r11
    3704:	cf 92       	push	r12
    3706:	df 92       	push	r13
    3708:	ef 92       	push	r14
    370a:	ff 92       	push	r15
    370c:	0f 93       	push	r16
    370e:	1f 93       	push	r17
    3710:	df 93       	push	r29
    3712:	cf 93       	push	r28
    3714:	cd b7       	in	r28, 0x3d	; 61
    3716:	de b7       	in	r29, 0x3e	; 62
    3718:	28 97       	sbiw	r28, 0x08	; 8
    371a:	0f b6       	in	r0, 0x3f	; 63
    371c:	f8 94       	cli
    371e:	de bf       	out	0x3e, r29	; 62
    3720:	0f be       	out	0x3f, r0	; 63
    3722:	cd bf       	out	0x3d, r28	; 61
    3724:	8c 01       	movw	r16, r24
    3726:	80 91 3e 05 	lds	r24, 0x053E
    372a:	90 91 3f 05 	lds	r25, 0x053F
    372e:	00 97       	sbiw	r24, 0x00	; 0
    3730:	39 f0       	breq	.+14     	; 0x3740 <display_file+0x40>
    3732:	60 91 42 05 	lds	r22, 0x0542
    3736:	70 91 43 05 	lds	r23, 0x0543
    373a:	61 15       	cp	r22, r1
    373c:	71 05       	cpc	r23, r1
    373e:	59 f4       	brne	.+22     	; 0x3756 <display_file+0x56>
    3740:	8a e0       	ldi	r24, 0x0A	; 10
    3742:	91 e0       	ldi	r25, 0x01	; 1
    3744:	0e 94 7d 1f 	call	0x3efa	; 0x3efa <uart_puts_p>
    3748:	8f ee       	ldi	r24, 0xEF	; 239
    374a:	90 e0       	ldi	r25, 0x00	; 0
    374c:	0e 94 7d 1f 	call	0x3efa	; 0x3efa <uart_puts_p>
    3750:	2f ef       	ldi	r18, 0xFF	; 255
    3752:	3f ef       	ldi	r19, 0xFF	; 255
    3754:	35 c0       	rjmp	.+106    	; 0x37c0 <display_file+0xc0>
    3756:	a8 01       	movw	r20, r16
    3758:	0e 94 52 1b 	call	0x36a4	; 0x36a4 <open_file_in_dir>
    375c:	7c 01       	movw	r14, r24
    375e:	00 97       	sbiw	r24, 0x00	; 0
    3760:	b1 f4       	brne	.+44     	; 0x378e <display_file+0x8e>
    3762:	80 ee       	ldi	r24, 0xE0	; 224
    3764:	90 e0       	ldi	r25, 0x00	; 0
    3766:	0e 94 7d 1f 	call	0x3efa	; 0x3efa <uart_puts_p>
    376a:	c8 01       	movw	r24, r16
    376c:	0e 94 70 1f 	call	0x3ee0	; 0x3ee0 <uart_puts>
    3770:	8a e0       	ldi	r24, 0x0A	; 10
    3772:	0e 94 81 1e 	call	0x3d02	; 0x3d02 <uart_putc>
    3776:	2e ef       	ldi	r18, 0xFE	; 254
    3778:	3f ef       	ldi	r19, 0xFF	; 255
    377a:	22 c0       	rjmp	.+68     	; 0x37c0 <display_file+0xc0>
    377c:	f8 01       	movw	r30, r16
    377e:	81 91       	ld	r24, Z+
    3780:	8f 01       	movw	r16, r30
    3782:	0e 94 81 1e 	call	0x3d02	; 0x3d02 <uart_putc>
    3786:	0a 15       	cp	r16, r10
    3788:	1b 05       	cpc	r17, r11
    378a:	c1 f7       	brne	.-16     	; 0x377c <display_file+0x7c>
    378c:	09 c0       	rjmp	.+18     	; 0x37a0 <display_file+0xa0>
    378e:	6e 01       	movw	r12, r28
    3790:	08 94       	sec
    3792:	c1 1c       	adc	r12, r1
    3794:	d1 1c       	adc	r13, r1
    3796:	89 e0       	ldi	r24, 0x09	; 9
    3798:	a8 2e       	mov	r10, r24
    379a:	b1 2c       	mov	r11, r1
    379c:	ac 0e       	add	r10, r28
    379e:	bd 1e       	adc	r11, r29
    37a0:	c7 01       	movw	r24, r14
    37a2:	b6 01       	movw	r22, r12
    37a4:	48 e0       	ldi	r20, 0x08	; 8
    37a6:	50 e0       	ldi	r21, 0x00	; 0
    37a8:	0e 94 2d 07 	call	0xe5a	; 0xe5a <fat_read_file>
    37ac:	18 16       	cp	r1, r24
    37ae:	19 06       	cpc	r1, r25
    37b0:	14 f4       	brge	.+4      	; 0x37b6 <display_file+0xb6>
    37b2:	86 01       	movw	r16, r12
    37b4:	e3 cf       	rjmp	.-58     	; 0x377c <display_file+0x7c>
    37b6:	c7 01       	movw	r24, r14
    37b8:	0e 94 27 07 	call	0xe4e	; 0xe4e <fat_close_file>
    37bc:	20 e0       	ldi	r18, 0x00	; 0
    37be:	30 e0       	ldi	r19, 0x00	; 0
    37c0:	c9 01       	movw	r24, r18
    37c2:	28 96       	adiw	r28, 0x08	; 8
    37c4:	0f b6       	in	r0, 0x3f	; 63
    37c6:	f8 94       	cli
    37c8:	de bf       	out	0x3e, r29	; 62
    37ca:	0f be       	out	0x3f, r0	; 63
    37cc:	cd bf       	out	0x3d, r28	; 61
    37ce:	cf 91       	pop	r28
    37d0:	df 91       	pop	r29
    37d2:	1f 91       	pop	r17
    37d4:	0f 91       	pop	r16
    37d6:	ff 90       	pop	r15
    37d8:	ef 90       	pop	r14
    37da:	df 90       	pop	r13
    37dc:	cf 90       	pop	r12
    37de:	bf 90       	pop	r11
    37e0:	af 90       	pop	r10
    37e2:	08 95       	ret

000037e4 <write_data_block>:
    37e4:	cf 92       	push	r12
    37e6:	df 92       	push	r13
    37e8:	ef 92       	push	r14
    37ea:	ff 92       	push	r15
    37ec:	0f 93       	push	r16
    37ee:	1f 93       	push	r17
    37f0:	cf 93       	push	r28
    37f2:	df 93       	push	r29
    37f4:	8c 01       	movw	r16, r24
    37f6:	6b 01       	movw	r12, r22
    37f8:	7a 01       	movw	r14, r20
    37fa:	80 91 3e 05 	lds	r24, 0x053E
    37fe:	90 91 3f 05 	lds	r25, 0x053F
    3802:	00 97       	sbiw	r24, 0x00	; 0
    3804:	39 f0       	breq	.+14     	; 0x3814 <write_data_block+0x30>
    3806:	60 91 42 05 	lds	r22, 0x0542
    380a:	70 91 43 05 	lds	r23, 0x0543
    380e:	61 15       	cp	r22, r1
    3810:	71 05       	cpc	r23, r1
    3812:	59 f4       	brne	.+22     	; 0x382a <write_data_block+0x46>
    3814:	8e e7       	ldi	r24, 0x7E	; 126
    3816:	91 e0       	ldi	r25, 0x01	; 1
    3818:	0e 94 7d 1f 	call	0x3efa	; 0x3efa <uart_puts_p>
    381c:	84 e6       	ldi	r24, 0x64	; 100
    381e:	91 e0       	ldi	r25, 0x01	; 1
    3820:	0e 94 7d 1f 	call	0x3efa	; 0x3efa <uart_puts_p>
    3824:	2f ef       	ldi	r18, 0xFF	; 255
    3826:	3f ef       	ldi	r19, 0xFF	; 255
    3828:	54 c0       	rjmp	.+168    	; 0x38d2 <write_data_block+0xee>
    382a:	a8 01       	movw	r20, r16
    382c:	0e 94 52 1b 	call	0x36a4	; 0x36a4 <open_file_in_dir>
    3830:	ec 01       	movw	r28, r24
    3832:	00 97       	sbiw	r24, 0x00	; 0
    3834:	69 f4       	brne	.+26     	; 0x3850 <write_data_block+0x6c>
    3836:	85 e5       	ldi	r24, 0x55	; 85
    3838:	91 e0       	ldi	r25, 0x01	; 1
    383a:	0e 94 7d 1f 	call	0x3efa	; 0x3efa <uart_puts_p>
    383e:	c8 01       	movw	r24, r16
    3840:	0e 94 70 1f 	call	0x3ee0	; 0x3ee0 <uart_puts>
    3844:	8a e0       	ldi	r24, 0x0A	; 10
    3846:	0e 94 81 1e 	call	0x3d02	; 0x3d02 <uart_putc>
    384a:	2e ef       	ldi	r18, 0xFE	; 254
    384c:	3f ef       	ldi	r19, 0xFF	; 255
    384e:	41 c0       	rjmp	.+130    	; 0x38d2 <write_data_block+0xee>
    3850:	62 e1       	ldi	r22, 0x12	; 18
    3852:	75 e0       	ldi	r23, 0x05	; 5
    3854:	40 e0       	ldi	r20, 0x00	; 0
    3856:	0e 94 93 12 	call	0x2526	; 0x2526 <fat_seek_file>
    385a:	88 23       	and	r24, r24
    385c:	69 f4       	brne	.+26     	; 0x3878 <write_data_block+0x94>
    385e:	83 e4       	ldi	r24, 0x43	; 67
    3860:	91 e0       	ldi	r25, 0x01	; 1
    3862:	0e 94 7d 1f 	call	0x3efa	; 0x3efa <uart_puts_p>
    3866:	8a e0       	ldi	r24, 0x0A	; 10
    3868:	0e 94 81 1e 	call	0x3d02	; 0x3d02 <uart_putc>
    386c:	ce 01       	movw	r24, r28
    386e:	0e 94 27 07 	call	0xe4e	; 0xe4e <fat_close_file>
    3872:	2d ef       	ldi	r18, 0xFD	; 253
    3874:	3f ef       	ldi	r19, 0xFF	; 255
    3876:	2d c0       	rjmp	.+90     	; 0x38d2 <write_data_block+0xee>
    3878:	ce 01       	movw	r24, r28
    387a:	b6 01       	movw	r22, r12
    387c:	a7 01       	movw	r20, r14
    387e:	0e 94 ef 12 	call	0x25de	; 0x25de <fat_write_file>
    3882:	8e 15       	cp	r24, r14
    3884:	9f 05       	cpc	r25, r15
    3886:	39 f0       	breq	.+14     	; 0x3896 <write_data_block+0xb2>
    3888:	8c e2       	ldi	r24, 0x2C	; 44
    388a:	91 e0       	ldi	r25, 0x01	; 1
    388c:	0e 94 7d 1f 	call	0x3efa	; 0x3efa <uart_puts_p>
    3890:	2c ef       	ldi	r18, 0xFC	; 252
    3892:	3f ef       	ldi	r19, 0xFF	; 255
    3894:	1e c0       	rjmp	.+60     	; 0x38d2 <write_data_block+0xee>
    3896:	9c 01       	movw	r18, r24
    3898:	44 27       	eor	r20, r20
    389a:	37 fd       	sbrc	r19, 7
    389c:	40 95       	com	r20
    389e:	54 2f       	mov	r21, r20
    38a0:	80 91 12 05 	lds	r24, 0x0512
    38a4:	90 91 13 05 	lds	r25, 0x0513
    38a8:	a0 91 14 05 	lds	r26, 0x0514
    38ac:	b0 91 15 05 	lds	r27, 0x0515
    38b0:	82 0f       	add	r24, r18
    38b2:	93 1f       	adc	r25, r19
    38b4:	a4 1f       	adc	r26, r20
    38b6:	b5 1f       	adc	r27, r21
    38b8:	80 93 12 05 	sts	0x0512, r24
    38bc:	90 93 13 05 	sts	0x0513, r25
    38c0:	a0 93 14 05 	sts	0x0514, r26
    38c4:	b0 93 15 05 	sts	0x0515, r27
    38c8:	ce 01       	movw	r24, r28
    38ca:	0e 94 27 07 	call	0xe4e	; 0xe4e <fat_close_file>
    38ce:	20 e0       	ldi	r18, 0x00	; 0
    38d0:	30 e0       	ldi	r19, 0x00	; 0
    38d2:	c9 01       	movw	r24, r18
    38d4:	df 91       	pop	r29
    38d6:	cf 91       	pop	r28
    38d8:	1f 91       	pop	r17
    38da:	0f 91       	pop	r16
    38dc:	ff 90       	pop	r15
    38de:	ef 90       	pop	r14
    38e0:	df 90       	pop	r13
    38e2:	cf 90       	pop	r12
    38e4:	08 95       	ret

000038e6 <write_data>:
    38e6:	cf 92       	push	r12
    38e8:	df 92       	push	r13
    38ea:	ef 92       	push	r14
    38ec:	ff 92       	push	r15
    38ee:	0f 93       	push	r16
    38f0:	1f 93       	push	r17
    38f2:	df 93       	push	r29
    38f4:	cf 93       	push	r28
    38f6:	cd b7       	in	r28, 0x3d	; 61
    38f8:	de b7       	in	r29, 0x3e	; 62
    38fa:	28 97       	sbiw	r28, 0x08	; 8
    38fc:	0f b6       	in	r0, 0x3f	; 63
    38fe:	f8 94       	cli
    3900:	de bf       	out	0x3e, r29	; 62
    3902:	0f be       	out	0x3f, r0	; 63
    3904:	cd bf       	out	0x3d, r28	; 61
    3906:	8c 01       	movw	r16, r24
    3908:	6b 01       	movw	r12, r22
    390a:	80 91 3e 05 	lds	r24, 0x053E
    390e:	90 91 3f 05 	lds	r25, 0x053F
    3912:	00 97       	sbiw	r24, 0x00	; 0
    3914:	39 f0       	breq	.+14     	; 0x3924 <write_data+0x3e>
    3916:	60 91 42 05 	lds	r22, 0x0542
    391a:	70 91 43 05 	lds	r23, 0x0543
    391e:	61 15       	cp	r22, r1
    3920:	71 05       	cpc	r23, r1
    3922:	59 f4       	brne	.+22     	; 0x393a <write_data+0x54>
    3924:	82 ef       	ldi	r24, 0xF2	; 242
    3926:	91 e0       	ldi	r25, 0x01	; 1
    3928:	0e 94 7d 1f 	call	0x3efa	; 0x3efa <uart_puts_p>
    392c:	88 ed       	ldi	r24, 0xD8	; 216
    392e:	91 e0       	ldi	r25, 0x01	; 1
    3930:	0e 94 7d 1f 	call	0x3efa	; 0x3efa <uart_puts_p>
    3934:	2f ef       	ldi	r18, 0xFF	; 255
    3936:	3f ef       	ldi	r19, 0xFF	; 255
    3938:	72 c0       	rjmp	.+228    	; 0x3a1e <write_data+0x138>
    393a:	a8 01       	movw	r20, r16
    393c:	0e 94 52 1b 	call	0x36a4	; 0x36a4 <open_file_in_dir>
    3940:	7c 01       	movw	r14, r24
    3942:	00 97       	sbiw	r24, 0x00	; 0
    3944:	69 f4       	brne	.+26     	; 0x3960 <write_data+0x7a>
    3946:	89 ec       	ldi	r24, 0xC9	; 201
    3948:	91 e0       	ldi	r25, 0x01	; 1
    394a:	0e 94 7d 1f 	call	0x3efa	; 0x3efa <uart_puts_p>
    394e:	c8 01       	movw	r24, r16
    3950:	0e 94 70 1f 	call	0x3ee0	; 0x3ee0 <uart_puts>
    3954:	8a e0       	ldi	r24, 0x0A	; 10
    3956:	0e 94 81 1e 	call	0x3d02	; 0x3d02 <uart_putc>
    395a:	2e ef       	ldi	r18, 0xFE	; 254
    395c:	3f ef       	ldi	r19, 0xFF	; 255
    395e:	5f c0       	rjmp	.+190    	; 0x3a1e <write_data+0x138>
    3960:	62 e1       	ldi	r22, 0x12	; 18
    3962:	75 e0       	ldi	r23, 0x05	; 5
    3964:	40 e0       	ldi	r20, 0x00	; 0
    3966:	0e 94 93 12 	call	0x2526	; 0x2526 <fat_seek_file>
    396a:	88 23       	and	r24, r24
    396c:	69 f4       	brne	.+26     	; 0x3988 <write_data+0xa2>
    396e:	87 eb       	ldi	r24, 0xB7	; 183
    3970:	91 e0       	ldi	r25, 0x01	; 1
    3972:	0e 94 7d 1f 	call	0x3efa	; 0x3efa <uart_puts_p>
    3976:	8a e0       	ldi	r24, 0x0A	; 10
    3978:	0e 94 81 1e 	call	0x3d02	; 0x3d02 <uart_putc>
    397c:	c7 01       	movw	r24, r14
    397e:	0e 94 27 07 	call	0xe4e	; 0xe4e <fat_close_file>
    3982:	2d ef       	ldi	r18, 0xFD	; 253
    3984:	3f ef       	ldi	r19, 0xFF	; 255
    3986:	4b c0       	rjmp	.+150    	; 0x3a1e <write_data+0x138>
    3988:	00 d0       	rcall	.+0      	; 0x398a <write_data+0xa4>
    398a:	00 d0       	rcall	.+0      	; 0x398c <write_data+0xa6>
    398c:	00 d0       	rcall	.+0      	; 0x398e <write_data+0xa8>
    398e:	ed b7       	in	r30, 0x3d	; 61
    3990:	fe b7       	in	r31, 0x3e	; 62
    3992:	31 96       	adiw	r30, 0x01	; 1
    3994:	8e 01       	movw	r16, r28
    3996:	0f 5f       	subi	r16, 0xFF	; 255
    3998:	1f 4f       	sbci	r17, 0xFF	; 255
    399a:	ad b7       	in	r26, 0x3d	; 61
    399c:	be b7       	in	r27, 0x3e	; 62
    399e:	12 96       	adiw	r26, 0x02	; 2
    39a0:	1c 93       	st	X, r17
    39a2:	0e 93       	st	-X, r16
    39a4:	11 97       	sbiw	r26, 0x01	; 1
    39a6:	82 e3       	ldi	r24, 0x32	; 50
    39a8:	91 e0       	ldi	r25, 0x01	; 1
    39aa:	93 83       	std	Z+3, r25	; 0x03
    39ac:	82 83       	std	Z+2, r24	; 0x02
    39ae:	d5 82       	std	Z+5, r13	; 0x05
    39b0:	c4 82       	std	Z+4, r12	; 0x04
    39b2:	0e 94 82 25 	call	0x4b04	; 0x4b04 <sprintf>
    39b6:	d8 2e       	mov	r13, r24
    39b8:	8d b7       	in	r24, 0x3d	; 61
    39ba:	9e b7       	in	r25, 0x3e	; 62
    39bc:	06 96       	adiw	r24, 0x06	; 6
    39be:	0f b6       	in	r0, 0x3f	; 63
    39c0:	f8 94       	cli
    39c2:	9e bf       	out	0x3e, r25	; 62
    39c4:	0f be       	out	0x3f, r0	; 63
    39c6:	8d bf       	out	0x3d, r24	; 61
    39c8:	c7 01       	movw	r24, r14
    39ca:	b8 01       	movw	r22, r16
    39cc:	4d 2d       	mov	r20, r13
    39ce:	50 e0       	ldi	r21, 0x00	; 0
    39d0:	0e 94 ef 12 	call	0x25de	; 0x25de <fat_write_file>
    39d4:	2d 2d       	mov	r18, r13
    39d6:	30 e0       	ldi	r19, 0x00	; 0
    39d8:	82 17       	cp	r24, r18
    39da:	93 07       	cpc	r25, r19
    39dc:	39 f0       	breq	.+14     	; 0x39ec <write_data+0x106>
    39de:	80 ea       	ldi	r24, 0xA0	; 160
    39e0:	91 e0       	ldi	r25, 0x01	; 1
    39e2:	0e 94 7d 1f 	call	0x3efa	; 0x3efa <uart_puts_p>
    39e6:	2c ef       	ldi	r18, 0xFC	; 252
    39e8:	3f ef       	ldi	r19, 0xFF	; 255
    39ea:	19 c0       	rjmp	.+50     	; 0x3a1e <write_data+0x138>
    39ec:	80 91 12 05 	lds	r24, 0x0512
    39f0:	90 91 13 05 	lds	r25, 0x0513
    39f4:	a0 91 14 05 	lds	r26, 0x0514
    39f8:	b0 91 15 05 	lds	r27, 0x0515
    39fc:	8d 0d       	add	r24, r13
    39fe:	91 1d       	adc	r25, r1
    3a00:	a1 1d       	adc	r26, r1
    3a02:	b1 1d       	adc	r27, r1
    3a04:	80 93 12 05 	sts	0x0512, r24
    3a08:	90 93 13 05 	sts	0x0513, r25
    3a0c:	a0 93 14 05 	sts	0x0514, r26
    3a10:	b0 93 15 05 	sts	0x0515, r27
    3a14:	c7 01       	movw	r24, r14
    3a16:	0e 94 27 07 	call	0xe4e	; 0xe4e <fat_close_file>
    3a1a:	20 e0       	ldi	r18, 0x00	; 0
    3a1c:	30 e0       	ldi	r19, 0x00	; 0
    3a1e:	c9 01       	movw	r24, r18
    3a20:	28 96       	adiw	r28, 0x08	; 8
    3a22:	0f b6       	in	r0, 0x3f	; 63
    3a24:	f8 94       	cli
    3a26:	de bf       	out	0x3e, r29	; 62
    3a28:	0f be       	out	0x3f, r0	; 63
    3a2a:	cd bf       	out	0x3d, r28	; 61
    3a2c:	cf 91       	pop	r28
    3a2e:	df 91       	pop	r29
    3a30:	1f 91       	pop	r17
    3a32:	0f 91       	pop	r16
    3a34:	ff 90       	pop	r15
    3a36:	ef 90       	pop	r14
    3a38:	df 90       	pop	r13
    3a3a:	cf 90       	pop	r12
    3a3c:	08 95       	ret

00003a3e <create_file>:
    3a3e:	0f 93       	push	r16
    3a40:	1f 93       	push	r17
    3a42:	df 93       	push	r29
    3a44:	cf 93       	push	r28
    3a46:	cd b7       	in	r28, 0x3d	; 61
    3a48:	de b7       	in	r29, 0x3e	; 62
    3a4a:	ab 97       	sbiw	r28, 0x2b	; 43
    3a4c:	0f b6       	in	r0, 0x3f	; 63
    3a4e:	f8 94       	cli
    3a50:	de bf       	out	0x3e, r29	; 62
    3a52:	0f be       	out	0x3f, r0	; 63
    3a54:	cd bf       	out	0x3d, r28	; 61
    3a56:	8c 01       	movw	r16, r24
    3a58:	80 91 42 05 	lds	r24, 0x0542
    3a5c:	90 91 43 05 	lds	r25, 0x0543
    3a60:	b8 01       	movw	r22, r16
    3a62:	ae 01       	movw	r20, r28
    3a64:	4f 5f       	subi	r20, 0xFF	; 255
    3a66:	5f 4f       	sbci	r21, 0xFF	; 255
    3a68:	0e 94 0e 11 	call	0x221c	; 0x221c <fat_create_file>
    3a6c:	88 23       	and	r24, r24
    3a6e:	19 f0       	breq	.+6      	; 0x3a76 <create_file+0x38>
    3a70:	20 e0       	ldi	r18, 0x00	; 0
    3a72:	30 e0       	ldi	r19, 0x00	; 0
    3a74:	0c c0       	rjmp	.+24     	; 0x3a8e <create_file+0x50>
    3a76:	84 e1       	ldi	r24, 0x14	; 20
    3a78:	92 e0       	ldi	r25, 0x02	; 2
    3a7a:	0e 94 7d 1f 	call	0x3efa	; 0x3efa <uart_puts_p>
    3a7e:	c8 01       	movw	r24, r16
    3a80:	0e 94 70 1f 	call	0x3ee0	; 0x3ee0 <uart_puts>
    3a84:	8a e0       	ldi	r24, 0x0A	; 10
    3a86:	0e 94 81 1e 	call	0x3d02	; 0x3d02 <uart_putc>
    3a8a:	2f ef       	ldi	r18, 0xFF	; 255
    3a8c:	3f ef       	ldi	r19, 0xFF	; 255
    3a8e:	c9 01       	movw	r24, r18
    3a90:	ab 96       	adiw	r28, 0x2b	; 43
    3a92:	0f b6       	in	r0, 0x3f	; 63
    3a94:	f8 94       	cli
    3a96:	de bf       	out	0x3e, r29	; 62
    3a98:	0f be       	out	0x3f, r0	; 63
    3a9a:	cd bf       	out	0x3d, r28	; 61
    3a9c:	cf 91       	pop	r28
    3a9e:	df 91       	pop	r29
    3aa0:	1f 91       	pop	r17
    3aa2:	0f 91       	pop	r16
    3aa4:	08 95       	ret

00003aa6 <init_sdcard>:
    3aa6:	ef 92       	push	r14
    3aa8:	ff 92       	push	r15
    3aaa:	0f 93       	push	r16
    3aac:	1f 93       	push	r17
    3aae:	df 93       	push	r29
    3ab0:	cf 93       	push	r28
    3ab2:	cd b7       	in	r28, 0x3d	; 61
    3ab4:	de b7       	in	r29, 0x3e	; 62
    3ab6:	c4 54       	subi	r28, 0x44	; 68
    3ab8:	d0 40       	sbci	r29, 0x00	; 0
    3aba:	0f b6       	in	r0, 0x3f	; 63
    3abc:	f8 94       	cli
    3abe:	de bf       	out	0x3e, r29	; 62
    3ac0:	0f be       	out	0x3f, r0	; 63
    3ac2:	cd bf       	out	0x3d, r28	; 61
    3ac4:	83 b7       	in	r24, 0x33	; 51
    3ac6:	81 7f       	andi	r24, 0xF1	; 241
    3ac8:	83 bf       	out	0x33, r24	; 51
    3aca:	3a e1       	ldi	r19, 0x1A	; 26
    3acc:	e3 2e       	mov	r14, r19
    3ace:	f1 2c       	mov	r15, r1
    3ad0:	ec 0e       	add	r14, r28
    3ad2:	fd 1e       	adc	r15, r29
    3ad4:	0e 94 f6 19 	call	0x33ec	; 0x33ec <sd_raw_init>
    3ad8:	88 23       	and	r24, r24
    3ada:	19 f4       	brne	.+6      	; 0x3ae2 <init_sdcard+0x3c>
    3adc:	8e e7       	ldi	r24, 0x7E	; 126
    3ade:	92 e0       	ldi	r25, 0x02	; 2
    3ae0:	48 c0       	rjmp	.+144    	; 0x3b72 <init_sdcard+0xcc>
    3ae2:	88 ec       	ldi	r24, 0xC8	; 200
    3ae4:	98 e1       	ldi	r25, 0x18	; 24
    3ae6:	66 e8       	ldi	r22, 0x86	; 134
    3ae8:	79 e1       	ldi	r23, 0x19	; 25
    3aea:	48 ed       	ldi	r20, 0xD8	; 216
    3aec:	57 e1       	ldi	r21, 0x17	; 23
    3aee:	2f e8       	ldi	r18, 0x8F	; 143
    3af0:	3a e1       	ldi	r19, 0x1A	; 26
    3af2:	00 e0       	ldi	r16, 0x00	; 0
    3af4:	0e 94 78 15 	call	0x2af0	; 0x2af0 <partition_open>
    3af8:	90 93 41 05 	sts	0x0541, r25
    3afc:	80 93 40 05 	sts	0x0540, r24
    3b00:	89 2b       	or	r24, r25
    3b02:	a1 f4       	brne	.+40     	; 0x3b2c <init_sdcard+0x86>
    3b04:	88 ec       	ldi	r24, 0xC8	; 200
    3b06:	98 e1       	ldi	r25, 0x18	; 24
    3b08:	66 e8       	ldi	r22, 0x86	; 134
    3b0a:	79 e1       	ldi	r23, 0x19	; 25
    3b0c:	48 ed       	ldi	r20, 0xD8	; 216
    3b0e:	57 e1       	ldi	r21, 0x17	; 23
    3b10:	2f e8       	ldi	r18, 0x8F	; 143
    3b12:	3a e1       	ldi	r19, 0x1A	; 26
    3b14:	0f ef       	ldi	r16, 0xFF	; 255
    3b16:	0e 94 78 15 	call	0x2af0	; 0x2af0 <partition_open>
    3b1a:	90 93 41 05 	sts	0x0541, r25
    3b1e:	80 93 40 05 	sts	0x0540, r24
    3b22:	89 2b       	or	r24, r25
    3b24:	19 f4       	brne	.+6      	; 0x3b2c <init_sdcard+0x86>
    3b26:	84 e6       	ldi	r24, 0x64	; 100
    3b28:	92 e0       	ldi	r25, 0x02	; 2
    3b2a:	23 c0       	rjmp	.+70     	; 0x3b72 <init_sdcard+0xcc>
    3b2c:	80 91 40 05 	lds	r24, 0x0540
    3b30:	90 91 41 05 	lds	r25, 0x0541
    3b34:	0e 94 45 0c 	call	0x188a	; 0x188a <fat_open>
    3b38:	90 93 3f 05 	sts	0x053F, r25
    3b3c:	80 93 3e 05 	sts	0x053E, r24
    3b40:	00 97       	sbiw	r24, 0x00	; 0
    3b42:	19 f4       	brne	.+6      	; 0x3b4a <init_sdcard+0xa4>
    3b44:	89 e4       	ldi	r24, 0x49	; 73
    3b46:	92 e0       	ldi	r25, 0x02	; 2
    3b48:	14 c0       	rjmp	.+40     	; 0x3b72 <init_sdcard+0xcc>
    3b4a:	68 e3       	ldi	r22, 0x38	; 56
    3b4c:	71 e0       	ldi	r23, 0x01	; 1
    3b4e:	a7 01       	movw	r20, r14
    3b50:	0e 94 df 14 	call	0x29be	; 0x29be <fat_get_dir_entry_of_path>
    3b54:	80 91 3e 05 	lds	r24, 0x053E
    3b58:	90 91 3f 05 	lds	r25, 0x053F
    3b5c:	b7 01       	movw	r22, r14
    3b5e:	0e 94 6c 14 	call	0x28d8	; 0x28d8 <fat_open_dir>
    3b62:	90 93 43 05 	sts	0x0543, r25
    3b66:	80 93 42 05 	sts	0x0542, r24
    3b6a:	89 2b       	or	r24, r25
    3b6c:	29 f4       	brne	.+10     	; 0x3b78 <init_sdcard+0xd2>
    3b6e:	8a e2       	ldi	r24, 0x2A	; 42
    3b70:	92 e0       	ldi	r25, 0x02	; 2
    3b72:	0e 94 7d 1f 	call	0x3efa	; 0x3efa <uart_puts_p>
    3b76:	ae cf       	rjmp	.-164    	; 0x3ad4 <init_sdcard+0x2e>
    3b78:	00 91 3e 05 	lds	r16, 0x053E
    3b7c:	10 91 3f 05 	lds	r17, 0x053F
    3b80:	01 15       	cp	r16, r1
    3b82:	11 05       	cpc	r17, r1
    3b84:	09 f4       	brne	.+2      	; 0x3b88 <init_sdcard+0xe2>
    3b86:	a1 c0       	rjmp	.+322    	; 0x3cca <init_sdcard+0x224>
    3b88:	ce 01       	movw	r24, r28
    3b8a:	01 96       	adiw	r24, 0x01	; 1
    3b8c:	0e 94 bb 16 	call	0x2d76	; 0x2d76 <sd_raw_get_info>
    3b90:	88 23       	and	r24, r24
    3b92:	09 f4       	brne	.+2      	; 0x3b96 <init_sdcard+0xf0>
    3b94:	9a c0       	rjmp	.+308    	; 0x3cca <init_sdcard+0x224>
    3b96:	8c ef       	ldi	r24, 0xFC	; 252
    3b98:	92 e0       	ldi	r25, 0x02	; 2
    3b9a:	0e 94 7d 1f 	call	0x3efa	; 0x3efa <uart_puts_p>
    3b9e:	89 81       	ldd	r24, Y+1	; 0x01
    3ba0:	0e 94 90 1e 	call	0x3d20	; 0x3d20 <uart_putc_hex>
    3ba4:	8a e0       	ldi	r24, 0x0A	; 10
    3ba6:	0e 94 81 1e 	call	0x3d02	; 0x3d02 <uart_putc>
    3baa:	83 ef       	ldi	r24, 0xF3	; 243
    3bac:	92 e0       	ldi	r25, 0x02	; 2
    3bae:	0e 94 7d 1f 	call	0x3efa	; 0x3efa <uart_puts_p>
    3bb2:	ce 01       	movw	r24, r28
    3bb4:	02 96       	adiw	r24, 0x02	; 2
    3bb6:	0e 94 70 1f 	call	0x3ee0	; 0x3ee0 <uart_puts>
    3bba:	8a e0       	ldi	r24, 0x0A	; 10
    3bbc:	0e 94 81 1e 	call	0x3d02	; 0x3d02 <uart_putc>
    3bc0:	8a ee       	ldi	r24, 0xEA	; 234
    3bc2:	92 e0       	ldi	r25, 0x02	; 2
    3bc4:	0e 94 7d 1f 	call	0x3efa	; 0x3efa <uart_puts_p>
    3bc8:	ce 01       	movw	r24, r28
    3bca:	05 96       	adiw	r24, 0x05	; 5
    3bcc:	0e 94 70 1f 	call	0x3ee0	; 0x3ee0 <uart_puts>
    3bd0:	8a e0       	ldi	r24, 0x0A	; 10
    3bd2:	0e 94 81 1e 	call	0x3d02	; 0x3d02 <uart_putc>
    3bd6:	81 ee       	ldi	r24, 0xE1	; 225
    3bd8:	92 e0       	ldi	r25, 0x02	; 2
    3bda:	0e 94 7d 1f 	call	0x3efa	; 0x3efa <uart_puts_p>
    3bde:	8b 85       	ldd	r24, Y+11	; 0x0b
    3be0:	0e 94 90 1e 	call	0x3d20	; 0x3d20 <uart_putc_hex>
    3be4:	8a e0       	ldi	r24, 0x0A	; 10
    3be6:	0e 94 81 1e 	call	0x3d02	; 0x3d02 <uart_putc>
    3bea:	86 ed       	ldi	r24, 0xD6	; 214
    3bec:	92 e0       	ldi	r25, 0x02	; 2
    3bee:	0e 94 7d 1f 	call	0x3efa	; 0x3efa <uart_puts_p>
    3bf2:	6c 85       	ldd	r22, Y+12	; 0x0c
    3bf4:	7d 85       	ldd	r23, Y+13	; 0x0d
    3bf6:	8e 85       	ldd	r24, Y+14	; 0x0e
    3bf8:	9f 85       	ldd	r25, Y+15	; 0x0f
    3bfa:	0e 94 b6 1e 	call	0x3d6c	; 0x3d6c <uart_putdw_hex>
    3bfe:	8a e0       	ldi	r24, 0x0A	; 10
    3c00:	0e 94 81 1e 	call	0x3d02	; 0x3d02 <uart_putc>
    3c04:	8d ec       	ldi	r24, 0xCD	; 205
    3c06:	92 e0       	ldi	r25, 0x02	; 2
    3c08:	0e 94 7d 1f 	call	0x3efa	; 0x3efa <uart_puts_p>
    3c0c:	89 89       	ldd	r24, Y+17	; 0x11
    3c0e:	90 e0       	ldi	r25, 0x00	; 0
    3c10:	0e 94 c9 1e 	call	0x3d92	; 0x3d92 <uart_putw_dec>
    3c14:	8f e2       	ldi	r24, 0x2F	; 47
    3c16:	0e 94 81 1e 	call	0x3d02	; 0x3d02 <uart_putc>
    3c1a:	88 89       	ldd	r24, Y+16	; 0x10
    3c1c:	90 e0       	ldi	r25, 0x00	; 0
    3c1e:	0e 94 c9 1e 	call	0x3d92	; 0x3d92 <uart_putw_dec>
    3c22:	8a e0       	ldi	r24, 0x0A	; 10
    3c24:	0e 94 81 1e 	call	0x3d02	; 0x3d02 <uart_putc>
    3c28:	84 ec       	ldi	r24, 0xC4	; 196
    3c2a:	92 e0       	ldi	r25, 0x02	; 2
    3c2c:	0e 94 7d 1f 	call	0x3efa	; 0x3efa <uart_puts_p>
    3c30:	6a 89       	ldd	r22, Y+18	; 0x12
    3c32:	7b 89       	ldd	r23, Y+19	; 0x13
    3c34:	8c 89       	ldd	r24, Y+20	; 0x14
    3c36:	9d 89       	ldd	r25, Y+21	; 0x15
    3c38:	24 e1       	ldi	r18, 0x14	; 20
    3c3a:	96 95       	lsr	r25
    3c3c:	87 95       	ror	r24
    3c3e:	77 95       	ror	r23
    3c40:	67 95       	ror	r22
    3c42:	2a 95       	dec	r18
    3c44:	d1 f7       	brne	.-12     	; 0x3c3a <init_sdcard+0x194>
    3c46:	0e 94 07 1f 	call	0x3e0e	; 0x3e0e <uart_putdw_dec>
    3c4a:	80 ec       	ldi	r24, 0xC0	; 192
    3c4c:	92 e0       	ldi	r25, 0x02	; 2
    3c4e:	0e 94 7d 1f 	call	0x3efa	; 0x3efa <uart_puts_p>
    3c52:	87 eb       	ldi	r24, 0xB7	; 183
    3c54:	92 e0       	ldi	r25, 0x02	; 2
    3c56:	0e 94 7d 1f 	call	0x3efa	; 0x3efa <uart_puts_p>
    3c5a:	8e 89       	ldd	r24, Y+22	; 0x16
    3c5c:	90 e0       	ldi	r25, 0x00	; 0
    3c5e:	0e 94 c9 1e 	call	0x3d92	; 0x3d92 <uart_putw_dec>
    3c62:	8a e0       	ldi	r24, 0x0A	; 10
    3c64:	0e 94 81 1e 	call	0x3d02	; 0x3d02 <uart_putc>
    3c68:	8e ea       	ldi	r24, 0xAE	; 174
    3c6a:	92 e0       	ldi	r25, 0x02	; 2
    3c6c:	0e 94 7d 1f 	call	0x3efa	; 0x3efa <uart_puts_p>
    3c70:	88 8d       	ldd	r24, Y+24	; 0x18
    3c72:	90 e0       	ldi	r25, 0x00	; 0
    3c74:	0e 94 c9 1e 	call	0x3d92	; 0x3d92 <uart_putw_dec>
    3c78:	8f e2       	ldi	r24, 0x2F	; 47
    3c7a:	0e 94 81 1e 	call	0x3d02	; 0x3d02 <uart_putc>
    3c7e:	8f 89       	ldd	r24, Y+23	; 0x17
    3c80:	90 e0       	ldi	r25, 0x00	; 0
    3c82:	0e 94 c9 1e 	call	0x3d92	; 0x3d92 <uart_putw_dec>
    3c86:	8a e0       	ldi	r24, 0x0A	; 10
    3c88:	0e 94 81 1e 	call	0x3d02	; 0x3d02 <uart_putc>
    3c8c:	85 ea       	ldi	r24, 0xA5	; 165
    3c8e:	92 e0       	ldi	r25, 0x02	; 2
    3c90:	0e 94 7d 1f 	call	0x3efa	; 0x3efa <uart_puts_p>
    3c94:	89 8d       	ldd	r24, Y+25	; 0x19
    3c96:	90 e0       	ldi	r25, 0x00	; 0
    3c98:	0e 94 c9 1e 	call	0x3d92	; 0x3d92 <uart_putw_dec>
    3c9c:	8a e0       	ldi	r24, 0x0A	; 10
    3c9e:	0e 94 81 1e 	call	0x3d02	; 0x3d02 <uart_putc>
    3ca2:	8c e9       	ldi	r24, 0x9C	; 156
    3ca4:	92 e0       	ldi	r25, 0x02	; 2
    3ca6:	0e 94 7d 1f 	call	0x3efa	; 0x3efa <uart_puts_p>
    3caa:	c8 01       	movw	r24, r16
    3cac:	0e 94 2b 09 	call	0x1256	; 0x1256 <fat_get_fs_free>
    3cb0:	0e 94 07 1f 	call	0x3e0e	; 0x3e0e <uart_putdw_dec>
    3cb4:	8f e2       	ldi	r24, 0x2F	; 47
    3cb6:	0e 94 81 1e 	call	0x3d02	; 0x3d02 <uart_putc>
    3cba:	c8 01       	movw	r24, r16
    3cbc:	0e 94 0c 09 	call	0x1218	; 0x1218 <fat_get_fs_size>
    3cc0:	0e 94 07 1f 	call	0x3e0e	; 0x3e0e <uart_putdw_dec>
    3cc4:	8a e0       	ldi	r24, 0x0A	; 10
    3cc6:	0e 94 81 1e 	call	0x3d02	; 0x3d02 <uart_putc>
    3cca:	80 e0       	ldi	r24, 0x00	; 0
    3ccc:	90 e0       	ldi	r25, 0x00	; 0
    3cce:	cc 5b       	subi	r28, 0xBC	; 188
    3cd0:	df 4f       	sbci	r29, 0xFF	; 255
    3cd2:	0f b6       	in	r0, 0x3f	; 63
    3cd4:	f8 94       	cli
    3cd6:	de bf       	out	0x3e, r29	; 62
    3cd8:	0f be       	out	0x3f, r0	; 63
    3cda:	cd bf       	out	0x3d, r28	; 61
    3cdc:	cf 91       	pop	r28
    3cde:	df 91       	pop	r29
    3ce0:	1f 91       	pop	r17
    3ce2:	0f 91       	pop	r16
    3ce4:	ff 90       	pop	r15
    3ce6:	ef 90       	pop	r14
    3ce8:	08 95       	ret

00003cea <uart_init>:
    3cea:	10 92 c5 00 	sts	0x00C5, r1
    3cee:	87 e6       	ldi	r24, 0x67	; 103
    3cf0:	80 93 c4 00 	sts	0x00C4, r24
    3cf4:	86 e0       	ldi	r24, 0x06	; 6
    3cf6:	80 93 c2 00 	sts	0x00C2, r24
    3cfa:	88 e9       	ldi	r24, 0x98	; 152
    3cfc:	80 93 c1 00 	sts	0x00C1, r24
    3d00:	08 95       	ret

00003d02 <uart_putc>:
    3d02:	1f 93       	push	r17
    3d04:	18 2f       	mov	r17, r24
    3d06:	8a 30       	cpi	r24, 0x0A	; 10
    3d08:	19 f4       	brne	.+6      	; 0x3d10 <uart_putc+0xe>
    3d0a:	8d e0       	ldi	r24, 0x0D	; 13
    3d0c:	0e 94 81 1e 	call	0x3d02	; 0x3d02 <uart_putc>
    3d10:	80 91 c0 00 	lds	r24, 0x00C0
    3d14:	85 ff       	sbrs	r24, 5
    3d16:	fc cf       	rjmp	.-8      	; 0x3d10 <uart_putc+0xe>
    3d18:	10 93 c6 00 	sts	0x00C6, r17
    3d1c:	1f 91       	pop	r17
    3d1e:	08 95       	ret

00003d20 <uart_putc_hex>:
    3d20:	1f 93       	push	r17
    3d22:	18 2f       	mov	r17, r24
    3d24:	82 95       	swap	r24
    3d26:	8f 70       	andi	r24, 0x0F	; 15
    3d28:	8a 30       	cpi	r24, 0x0A	; 10
    3d2a:	10 f4       	brcc	.+4      	; 0x3d30 <uart_putc_hex+0x10>
    3d2c:	80 5d       	subi	r24, 0xD0	; 208
    3d2e:	01 c0       	rjmp	.+2      	; 0x3d32 <uart_putc_hex+0x12>
    3d30:	89 5a       	subi	r24, 0xA9	; 169
    3d32:	0e 94 81 1e 	call	0x3d02	; 0x3d02 <uart_putc>
    3d36:	81 2f       	mov	r24, r17
    3d38:	90 e0       	ldi	r25, 0x00	; 0
    3d3a:	8f 70       	andi	r24, 0x0F	; 15
    3d3c:	90 70       	andi	r25, 0x00	; 0
    3d3e:	21 2f       	mov	r18, r17
    3d40:	2f 70       	andi	r18, 0x0F	; 15
    3d42:	0a 97       	sbiw	r24, 0x0a	; 10
    3d44:	1c f4       	brge	.+6      	; 0x3d4c <uart_putc_hex+0x2c>
    3d46:	82 2f       	mov	r24, r18
    3d48:	80 5d       	subi	r24, 0xD0	; 208
    3d4a:	02 c0       	rjmp	.+4      	; 0x3d50 <uart_putc_hex+0x30>
    3d4c:	82 2f       	mov	r24, r18
    3d4e:	89 5a       	subi	r24, 0xA9	; 169
    3d50:	0e 94 81 1e 	call	0x3d02	; 0x3d02 <uart_putc>
    3d54:	1f 91       	pop	r17
    3d56:	08 95       	ret

00003d58 <uart_putw_hex>:
    3d58:	1f 93       	push	r17
    3d5a:	18 2f       	mov	r17, r24
    3d5c:	89 2f       	mov	r24, r25
    3d5e:	0e 94 90 1e 	call	0x3d20	; 0x3d20 <uart_putc_hex>
    3d62:	81 2f       	mov	r24, r17
    3d64:	0e 94 90 1e 	call	0x3d20	; 0x3d20 <uart_putc_hex>
    3d68:	1f 91       	pop	r17
    3d6a:	08 95       	ret

00003d6c <uart_putdw_hex>:
    3d6c:	ef 92       	push	r14
    3d6e:	ff 92       	push	r15
    3d70:	0f 93       	push	r16
    3d72:	1f 93       	push	r17
    3d74:	7b 01       	movw	r14, r22
    3d76:	8c 01       	movw	r16, r24
    3d78:	c8 01       	movw	r24, r16
    3d7a:	aa 27       	eor	r26, r26
    3d7c:	bb 27       	eor	r27, r27
    3d7e:	0e 94 ac 1e 	call	0x3d58	; 0x3d58 <uart_putw_hex>
    3d82:	c7 01       	movw	r24, r14
    3d84:	0e 94 ac 1e 	call	0x3d58	; 0x3d58 <uart_putw_hex>
    3d88:	1f 91       	pop	r17
    3d8a:	0f 91       	pop	r16
    3d8c:	ff 90       	pop	r15
    3d8e:	ef 90       	pop	r14
    3d90:	08 95       	ret

00003d92 <uart_putw_dec>:
    3d92:	cf 92       	push	r12
    3d94:	df 92       	push	r13
    3d96:	ff 92       	push	r15
    3d98:	0f 93       	push	r16
    3d9a:	1f 93       	push	r17
    3d9c:	cf 93       	push	r28
    3d9e:	df 93       	push	r29
    3da0:	6c 01       	movw	r12, r24
    3da2:	c0 e1       	ldi	r28, 0x10	; 16
    3da4:	d7 e2       	ldi	r29, 0x27	; 39
    3da6:	40 e0       	ldi	r20, 0x00	; 0
    3da8:	00 e0       	ldi	r16, 0x00	; 0
    3daa:	10 e0       	ldi	r17, 0x00	; 0
    3dac:	c6 01       	movw	r24, r12
    3dae:	be 01       	movw	r22, r28
    3db0:	0e 94 b6 24 	call	0x496c	; 0x496c <__udivmodhi4>
    3db4:	f6 2e       	mov	r15, r22
    3db6:	66 23       	and	r22, r22
    3db8:	29 f4       	brne	.+10     	; 0x3dc4 <uart_putw_dec+0x32>
    3dba:	44 23       	and	r20, r20
    3dbc:	19 f4       	brne	.+6      	; 0x3dc4 <uart_putw_dec+0x32>
    3dbe:	c1 30       	cpi	r28, 0x01	; 1
    3dc0:	d1 05       	cpc	r29, r1
    3dc2:	29 f4       	brne	.+10     	; 0x3dce <uart_putw_dec+0x3c>
    3dc4:	8f 2d       	mov	r24, r15
    3dc6:	80 5d       	subi	r24, 0xD0	; 208
    3dc8:	0e 94 81 1e 	call	0x3d02	; 0x3d02 <uart_putc>
    3dcc:	41 e0       	ldi	r20, 0x01	; 1
    3dce:	ce 01       	movw	r24, r28
    3dd0:	6a e0       	ldi	r22, 0x0A	; 10
    3dd2:	70 e0       	ldi	r23, 0x00	; 0
    3dd4:	0e 94 b6 24 	call	0x496c	; 0x496c <__udivmodhi4>
    3dd8:	0f 5f       	subi	r16, 0xFF	; 255
    3dda:	1f 4f       	sbci	r17, 0xFF	; 255
    3ddc:	05 30       	cpi	r16, 0x05	; 5
    3dde:	11 05       	cpc	r17, r1
    3de0:	71 f0       	breq	.+28     	; 0x3dfe <uart_putw_dec+0x6c>
    3de2:	8f 2d       	mov	r24, r15
    3de4:	90 e0       	ldi	r25, 0x00	; 0
    3de6:	9c 01       	movw	r18, r24
    3de8:	2c 9f       	mul	r18, r28
    3dea:	c0 01       	movw	r24, r0
    3dec:	2d 9f       	mul	r18, r29
    3dee:	90 0d       	add	r25, r0
    3df0:	3c 9f       	mul	r19, r28
    3df2:	90 0d       	add	r25, r0
    3df4:	11 24       	eor	r1, r1
    3df6:	c8 1a       	sub	r12, r24
    3df8:	d9 0a       	sbc	r13, r25
    3dfa:	eb 01       	movw	r28, r22
    3dfc:	d7 cf       	rjmp	.-82     	; 0x3dac <uart_putw_dec+0x1a>
    3dfe:	df 91       	pop	r29
    3e00:	cf 91       	pop	r28
    3e02:	1f 91       	pop	r17
    3e04:	0f 91       	pop	r16
    3e06:	ff 90       	pop	r15
    3e08:	df 90       	pop	r13
    3e0a:	cf 90       	pop	r12
    3e0c:	08 95       	ret

00003e0e <uart_putdw_dec>:
    3e0e:	4f 92       	push	r4
    3e10:	5f 92       	push	r5
    3e12:	6f 92       	push	r6
    3e14:	7f 92       	push	r7
    3e16:	8f 92       	push	r8
    3e18:	9f 92       	push	r9
    3e1a:	af 92       	push	r10
    3e1c:	bf 92       	push	r11
    3e1e:	cf 92       	push	r12
    3e20:	df 92       	push	r13
    3e22:	ef 92       	push	r14
    3e24:	ff 92       	push	r15
    3e26:	0f 93       	push	r16
    3e28:	1f 93       	push	r17
    3e2a:	cf 93       	push	r28
    3e2c:	df 93       	push	r29
    3e2e:	5b 01       	movw	r10, r22
    3e30:	6c 01       	movw	r12, r24
    3e32:	e1 2c       	mov	r14, r1
    3e34:	9a ec       	ldi	r25, 0xCA	; 202
    3e36:	f9 2e       	mov	r15, r25
    3e38:	9a e9       	ldi	r25, 0x9A	; 154
    3e3a:	09 2f       	mov	r16, r25
    3e3c:	9b e3       	ldi	r25, 0x3B	; 59
    3e3e:	19 2f       	mov	r17, r25
    3e40:	44 24       	eor	r4, r4
    3e42:	c0 e0       	ldi	r28, 0x00	; 0
    3e44:	d0 e0       	ldi	r29, 0x00	; 0
    3e46:	c6 01       	movw	r24, r12
    3e48:	b5 01       	movw	r22, r10
    3e4a:	a8 01       	movw	r20, r16
    3e4c:	97 01       	movw	r18, r14
    3e4e:	0e 94 dd 24 	call	0x49ba	; 0x49ba <__udivmodsi4>
    3e52:	92 2e       	mov	r9, r18
    3e54:	22 23       	and	r18, r18
    3e56:	41 f4       	brne	.+16     	; 0x3e68 <uart_putdw_dec+0x5a>
    3e58:	44 20       	and	r4, r4
    3e5a:	31 f4       	brne	.+12     	; 0x3e68 <uart_putdw_dec+0x5a>
    3e5c:	81 e0       	ldi	r24, 0x01	; 1
    3e5e:	e8 16       	cp	r14, r24
    3e60:	f1 04       	cpc	r15, r1
    3e62:	01 05       	cpc	r16, r1
    3e64:	11 05       	cpc	r17, r1
    3e66:	31 f4       	brne	.+12     	; 0x3e74 <uart_putdw_dec+0x66>
    3e68:	89 2d       	mov	r24, r9
    3e6a:	80 5d       	subi	r24, 0xD0	; 208
    3e6c:	0e 94 81 1e 	call	0x3d02	; 0x3d02 <uart_putc>
    3e70:	44 24       	eor	r4, r4
    3e72:	43 94       	inc	r4
    3e74:	c8 01       	movw	r24, r16
    3e76:	b7 01       	movw	r22, r14
    3e78:	2a e0       	ldi	r18, 0x0A	; 10
    3e7a:	30 e0       	ldi	r19, 0x00	; 0
    3e7c:	40 e0       	ldi	r20, 0x00	; 0
    3e7e:	50 e0       	ldi	r21, 0x00	; 0
    3e80:	0e 94 dd 24 	call	0x49ba	; 0x49ba <__udivmodsi4>
    3e84:	82 2e       	mov	r8, r18
    3e86:	73 2e       	mov	r7, r19
    3e88:	64 2e       	mov	r6, r20
    3e8a:	55 2e       	mov	r5, r21
    3e8c:	21 96       	adiw	r28, 0x01	; 1
    3e8e:	ca 30       	cpi	r28, 0x0A	; 10
    3e90:	d1 05       	cpc	r29, r1
    3e92:	a9 f0       	breq	.+42     	; 0x3ebe <uart_putdw_dec+0xb0>
    3e94:	69 2d       	mov	r22, r9
    3e96:	70 e0       	ldi	r23, 0x00	; 0
    3e98:	80 e0       	ldi	r24, 0x00	; 0
    3e9a:	90 e0       	ldi	r25, 0x00	; 0
    3e9c:	a8 01       	movw	r20, r16
    3e9e:	97 01       	movw	r18, r14
    3ea0:	0e 94 97 24 	call	0x492e	; 0x492e <__mulsi3>
    3ea4:	a6 1a       	sub	r10, r22
    3ea6:	b7 0a       	sbc	r11, r23
    3ea8:	c8 0a       	sbc	r12, r24
    3eaa:	d9 0a       	sbc	r13, r25
    3eac:	28 2d       	mov	r18, r8
    3eae:	37 2d       	mov	r19, r7
    3eb0:	46 2d       	mov	r20, r6
    3eb2:	55 2d       	mov	r21, r5
    3eb4:	c9 01       	movw	r24, r18
    3eb6:	da 01       	movw	r26, r20
    3eb8:	7c 01       	movw	r14, r24
    3eba:	8d 01       	movw	r16, r26
    3ebc:	c4 cf       	rjmp	.-120    	; 0x3e46 <uart_putdw_dec+0x38>
    3ebe:	df 91       	pop	r29
    3ec0:	cf 91       	pop	r28
    3ec2:	1f 91       	pop	r17
    3ec4:	0f 91       	pop	r16
    3ec6:	ff 90       	pop	r15
    3ec8:	ef 90       	pop	r14
    3eca:	df 90       	pop	r13
    3ecc:	cf 90       	pop	r12
    3ece:	bf 90       	pop	r11
    3ed0:	af 90       	pop	r10
    3ed2:	9f 90       	pop	r9
    3ed4:	8f 90       	pop	r8
    3ed6:	7f 90       	pop	r7
    3ed8:	6f 90       	pop	r6
    3eda:	5f 90       	pop	r5
    3edc:	4f 90       	pop	r4
    3ede:	08 95       	ret

00003ee0 <uart_puts>:
    3ee0:	cf 93       	push	r28
    3ee2:	df 93       	push	r29
    3ee4:	ec 01       	movw	r28, r24
    3ee6:	03 c0       	rjmp	.+6      	; 0x3eee <uart_puts+0xe>
    3ee8:	21 96       	adiw	r28, 0x01	; 1
    3eea:	0e 94 81 1e 	call	0x3d02	; 0x3d02 <uart_putc>
    3eee:	88 81       	ld	r24, Y
    3ef0:	88 23       	and	r24, r24
    3ef2:	d1 f7       	brne	.-12     	; 0x3ee8 <uart_puts+0x8>
    3ef4:	df 91       	pop	r29
    3ef6:	cf 91       	pop	r28
    3ef8:	08 95       	ret

00003efa <uart_puts_p>:
    3efa:	cf 93       	push	r28
    3efc:	df 93       	push	r29
    3efe:	ec 01       	movw	r28, r24
    3f00:	fe 01       	movw	r30, r28
    3f02:	21 96       	adiw	r28, 0x01	; 1
    3f04:	84 91       	lpm	r24, Z+
    3f06:	88 23       	and	r24, r24
    3f08:	19 f0       	breq	.+6      	; 0x3f10 <uart_puts_p+0x16>
    3f0a:	0e 94 81 1e 	call	0x3d02	; 0x3d02 <uart_putc>
    3f0e:	f8 cf       	rjmp	.-16     	; 0x3f00 <uart_puts_p+0x6>
    3f10:	df 91       	pop	r29
    3f12:	cf 91       	pop	r28
    3f14:	08 95       	ret

00003f16 <uart_getc>:
    3f16:	9f b7       	in	r25, 0x3f	; 63
    3f18:	78 94       	sei
    3f1a:	07 c0       	rjmp	.+14     	; 0x3f2a <uart_getc+0x14>
    3f1c:	83 b7       	in	r24, 0x33	; 51
    3f1e:	81 60       	ori	r24, 0x01	; 1
    3f20:	83 bf       	out	0x33, r24	; 51
    3f22:	88 95       	sleep
    3f24:	83 b7       	in	r24, 0x33	; 51
    3f26:	8e 7f       	andi	r24, 0xFE	; 254
    3f28:	83 bf       	out	0x33, r24	; 51
    3f2a:	80 91 c0 00 	lds	r24, 0x00C0
    3f2e:	87 ff       	sbrs	r24, 7
    3f30:	f5 cf       	rjmp	.-22     	; 0x3f1c <uart_getc+0x6>
    3f32:	9f bf       	out	0x3f, r25	; 63
    3f34:	80 91 c6 00 	lds	r24, 0x00C6
    3f38:	8d 30       	cpi	r24, 0x0D	; 13
    3f3a:	09 f4       	brne	.+2      	; 0x3f3e <uart_getc+0x28>
    3f3c:	8a e0       	ldi	r24, 0x0A	; 10
    3f3e:	08 95       	ret

00003f40 <__vector_18>:
    3f40:	18 95       	reti

00003f42 <__mulsf3>:
    3f42:	a0 e2       	ldi	r26, 0x20	; 32
    3f44:	b0 e0       	ldi	r27, 0x00	; 0
    3f46:	e7 ea       	ldi	r30, 0xA7	; 167
    3f48:	ff e1       	ldi	r31, 0x1F	; 31
    3f4a:	0c 94 ff 24 	jmp	0x49fe	; 0x49fe <__prologue_saves__>
    3f4e:	69 83       	std	Y+1, r22	; 0x01
    3f50:	7a 83       	std	Y+2, r23	; 0x02
    3f52:	8b 83       	std	Y+3, r24	; 0x03
    3f54:	9c 83       	std	Y+4, r25	; 0x04
    3f56:	2d 83       	std	Y+5, r18	; 0x05
    3f58:	3e 83       	std	Y+6, r19	; 0x06
    3f5a:	4f 83       	std	Y+7, r20	; 0x07
    3f5c:	58 87       	std	Y+8, r21	; 0x08
    3f5e:	ce 01       	movw	r24, r28
    3f60:	01 96       	adiw	r24, 0x01	; 1
    3f62:	be 01       	movw	r22, r28
    3f64:	67 5f       	subi	r22, 0xF7	; 247
    3f66:	7f 4f       	sbci	r23, 0xFF	; 255
    3f68:	0e 94 c6 23 	call	0x478c	; 0x478c <__unpack_f>
    3f6c:	ce 01       	movw	r24, r28
    3f6e:	05 96       	adiw	r24, 0x05	; 5
    3f70:	be 01       	movw	r22, r28
    3f72:	6f 5e       	subi	r22, 0xEF	; 239
    3f74:	7f 4f       	sbci	r23, 0xFF	; 255
    3f76:	0e 94 c6 23 	call	0x478c	; 0x478c <__unpack_f>
    3f7a:	99 85       	ldd	r25, Y+9	; 0x09
    3f7c:	92 30       	cpi	r25, 0x02	; 2
    3f7e:	88 f0       	brcs	.+34     	; 0x3fa2 <__mulsf3+0x60>
    3f80:	89 89       	ldd	r24, Y+17	; 0x11
    3f82:	82 30       	cpi	r24, 0x02	; 2
    3f84:	c8 f0       	brcs	.+50     	; 0x3fb8 <__mulsf3+0x76>
    3f86:	94 30       	cpi	r25, 0x04	; 4
    3f88:	19 f4       	brne	.+6      	; 0x3f90 <__mulsf3+0x4e>
    3f8a:	82 30       	cpi	r24, 0x02	; 2
    3f8c:	51 f4       	brne	.+20     	; 0x3fa2 <__mulsf3+0x60>
    3f8e:	04 c0       	rjmp	.+8      	; 0x3f98 <__mulsf3+0x56>
    3f90:	84 30       	cpi	r24, 0x04	; 4
    3f92:	29 f4       	brne	.+10     	; 0x3f9e <__mulsf3+0x5c>
    3f94:	92 30       	cpi	r25, 0x02	; 2
    3f96:	81 f4       	brne	.+32     	; 0x3fb8 <__mulsf3+0x76>
    3f98:	8a e3       	ldi	r24, 0x3A	; 58
    3f9a:	91 e0       	ldi	r25, 0x01	; 1
    3f9c:	c6 c0       	rjmp	.+396    	; 0x412a <__mulsf3+0x1e8>
    3f9e:	92 30       	cpi	r25, 0x02	; 2
    3fa0:	49 f4       	brne	.+18     	; 0x3fb4 <__mulsf3+0x72>
    3fa2:	20 e0       	ldi	r18, 0x00	; 0
    3fa4:	9a 85       	ldd	r25, Y+10	; 0x0a
    3fa6:	8a 89       	ldd	r24, Y+18	; 0x12
    3fa8:	98 13       	cpse	r25, r24
    3faa:	21 e0       	ldi	r18, 0x01	; 1
    3fac:	2a 87       	std	Y+10, r18	; 0x0a
    3fae:	ce 01       	movw	r24, r28
    3fb0:	09 96       	adiw	r24, 0x09	; 9
    3fb2:	bb c0       	rjmp	.+374    	; 0x412a <__mulsf3+0x1e8>
    3fb4:	82 30       	cpi	r24, 0x02	; 2
    3fb6:	49 f4       	brne	.+18     	; 0x3fca <__mulsf3+0x88>
    3fb8:	20 e0       	ldi	r18, 0x00	; 0
    3fba:	9a 85       	ldd	r25, Y+10	; 0x0a
    3fbc:	8a 89       	ldd	r24, Y+18	; 0x12
    3fbe:	98 13       	cpse	r25, r24
    3fc0:	21 e0       	ldi	r18, 0x01	; 1
    3fc2:	2a 8b       	std	Y+18, r18	; 0x12
    3fc4:	ce 01       	movw	r24, r28
    3fc6:	41 96       	adiw	r24, 0x11	; 17
    3fc8:	b0 c0       	rjmp	.+352    	; 0x412a <__mulsf3+0x1e8>
    3fca:	2d 84       	ldd	r2, Y+13	; 0x0d
    3fcc:	3e 84       	ldd	r3, Y+14	; 0x0e
    3fce:	4f 84       	ldd	r4, Y+15	; 0x0f
    3fd0:	58 88       	ldd	r5, Y+16	; 0x10
    3fd2:	6d 88       	ldd	r6, Y+21	; 0x15
    3fd4:	7e 88       	ldd	r7, Y+22	; 0x16
    3fd6:	8f 88       	ldd	r8, Y+23	; 0x17
    3fd8:	98 8c       	ldd	r9, Y+24	; 0x18
    3fda:	ee 24       	eor	r14, r14
    3fdc:	ff 24       	eor	r15, r15
    3fde:	87 01       	movw	r16, r14
    3fe0:	aa 24       	eor	r10, r10
    3fe2:	bb 24       	eor	r11, r11
    3fe4:	65 01       	movw	r12, r10
    3fe6:	40 e0       	ldi	r20, 0x00	; 0
    3fe8:	50 e0       	ldi	r21, 0x00	; 0
    3fea:	60 e0       	ldi	r22, 0x00	; 0
    3fec:	70 e0       	ldi	r23, 0x00	; 0
    3fee:	e0 e0       	ldi	r30, 0x00	; 0
    3ff0:	f0 e0       	ldi	r31, 0x00	; 0
    3ff2:	c1 01       	movw	r24, r2
    3ff4:	81 70       	andi	r24, 0x01	; 1
    3ff6:	90 70       	andi	r25, 0x00	; 0
    3ff8:	89 2b       	or	r24, r25
    3ffa:	e9 f0       	breq	.+58     	; 0x4036 <__mulsf3+0xf4>
    3ffc:	e6 0c       	add	r14, r6
    3ffe:	f7 1c       	adc	r15, r7
    4000:	08 1d       	adc	r16, r8
    4002:	19 1d       	adc	r17, r9
    4004:	9a 01       	movw	r18, r20
    4006:	ab 01       	movw	r20, r22
    4008:	2a 0d       	add	r18, r10
    400a:	3b 1d       	adc	r19, r11
    400c:	4c 1d       	adc	r20, r12
    400e:	5d 1d       	adc	r21, r13
    4010:	80 e0       	ldi	r24, 0x00	; 0
    4012:	90 e0       	ldi	r25, 0x00	; 0
    4014:	a0 e0       	ldi	r26, 0x00	; 0
    4016:	b0 e0       	ldi	r27, 0x00	; 0
    4018:	e6 14       	cp	r14, r6
    401a:	f7 04       	cpc	r15, r7
    401c:	08 05       	cpc	r16, r8
    401e:	19 05       	cpc	r17, r9
    4020:	20 f4       	brcc	.+8      	; 0x402a <__mulsf3+0xe8>
    4022:	81 e0       	ldi	r24, 0x01	; 1
    4024:	90 e0       	ldi	r25, 0x00	; 0
    4026:	a0 e0       	ldi	r26, 0x00	; 0
    4028:	b0 e0       	ldi	r27, 0x00	; 0
    402a:	ba 01       	movw	r22, r20
    402c:	a9 01       	movw	r20, r18
    402e:	48 0f       	add	r20, r24
    4030:	59 1f       	adc	r21, r25
    4032:	6a 1f       	adc	r22, r26
    4034:	7b 1f       	adc	r23, r27
    4036:	aa 0c       	add	r10, r10
    4038:	bb 1c       	adc	r11, r11
    403a:	cc 1c       	adc	r12, r12
    403c:	dd 1c       	adc	r13, r13
    403e:	97 fe       	sbrs	r9, 7
    4040:	08 c0       	rjmp	.+16     	; 0x4052 <__mulsf3+0x110>
    4042:	81 e0       	ldi	r24, 0x01	; 1
    4044:	90 e0       	ldi	r25, 0x00	; 0
    4046:	a0 e0       	ldi	r26, 0x00	; 0
    4048:	b0 e0       	ldi	r27, 0x00	; 0
    404a:	a8 2a       	or	r10, r24
    404c:	b9 2a       	or	r11, r25
    404e:	ca 2a       	or	r12, r26
    4050:	db 2a       	or	r13, r27
    4052:	31 96       	adiw	r30, 0x01	; 1
    4054:	e0 32       	cpi	r30, 0x20	; 32
    4056:	f1 05       	cpc	r31, r1
    4058:	49 f0       	breq	.+18     	; 0x406c <__mulsf3+0x12a>
    405a:	66 0c       	add	r6, r6
    405c:	77 1c       	adc	r7, r7
    405e:	88 1c       	adc	r8, r8
    4060:	99 1c       	adc	r9, r9
    4062:	56 94       	lsr	r5
    4064:	47 94       	ror	r4
    4066:	37 94       	ror	r3
    4068:	27 94       	ror	r2
    406a:	c3 cf       	rjmp	.-122    	; 0x3ff2 <__mulsf3+0xb0>
    406c:	fa 85       	ldd	r31, Y+10	; 0x0a
    406e:	ea 89       	ldd	r30, Y+18	; 0x12
    4070:	2b 89       	ldd	r18, Y+19	; 0x13
    4072:	3c 89       	ldd	r19, Y+20	; 0x14
    4074:	8b 85       	ldd	r24, Y+11	; 0x0b
    4076:	9c 85       	ldd	r25, Y+12	; 0x0c
    4078:	28 0f       	add	r18, r24
    407a:	39 1f       	adc	r19, r25
    407c:	2e 5f       	subi	r18, 0xFE	; 254
    407e:	3f 4f       	sbci	r19, 0xFF	; 255
    4080:	17 c0       	rjmp	.+46     	; 0x40b0 <__mulsf3+0x16e>
    4082:	ca 01       	movw	r24, r20
    4084:	81 70       	andi	r24, 0x01	; 1
    4086:	90 70       	andi	r25, 0x00	; 0
    4088:	89 2b       	or	r24, r25
    408a:	61 f0       	breq	.+24     	; 0x40a4 <__mulsf3+0x162>
    408c:	16 95       	lsr	r17
    408e:	07 95       	ror	r16
    4090:	f7 94       	ror	r15
    4092:	e7 94       	ror	r14
    4094:	80 e0       	ldi	r24, 0x00	; 0
    4096:	90 e0       	ldi	r25, 0x00	; 0
    4098:	a0 e0       	ldi	r26, 0x00	; 0
    409a:	b0 e8       	ldi	r27, 0x80	; 128
    409c:	e8 2a       	or	r14, r24
    409e:	f9 2a       	or	r15, r25
    40a0:	0a 2b       	or	r16, r26
    40a2:	1b 2b       	or	r17, r27
    40a4:	76 95       	lsr	r23
    40a6:	67 95       	ror	r22
    40a8:	57 95       	ror	r21
    40aa:	47 95       	ror	r20
    40ac:	2f 5f       	subi	r18, 0xFF	; 255
    40ae:	3f 4f       	sbci	r19, 0xFF	; 255
    40b0:	77 fd       	sbrc	r23, 7
    40b2:	e7 cf       	rjmp	.-50     	; 0x4082 <__mulsf3+0x140>
    40b4:	0c c0       	rjmp	.+24     	; 0x40ce <__mulsf3+0x18c>
    40b6:	44 0f       	add	r20, r20
    40b8:	55 1f       	adc	r21, r21
    40ba:	66 1f       	adc	r22, r22
    40bc:	77 1f       	adc	r23, r23
    40be:	17 fd       	sbrc	r17, 7
    40c0:	41 60       	ori	r20, 0x01	; 1
    40c2:	ee 0c       	add	r14, r14
    40c4:	ff 1c       	adc	r15, r15
    40c6:	00 1f       	adc	r16, r16
    40c8:	11 1f       	adc	r17, r17
    40ca:	21 50       	subi	r18, 0x01	; 1
    40cc:	30 40       	sbci	r19, 0x00	; 0
    40ce:	40 30       	cpi	r20, 0x00	; 0
    40d0:	90 e0       	ldi	r25, 0x00	; 0
    40d2:	59 07       	cpc	r21, r25
    40d4:	90 e0       	ldi	r25, 0x00	; 0
    40d6:	69 07       	cpc	r22, r25
    40d8:	90 e4       	ldi	r25, 0x40	; 64
    40da:	79 07       	cpc	r23, r25
    40dc:	60 f3       	brcs	.-40     	; 0x40b6 <__mulsf3+0x174>
    40de:	2b 8f       	std	Y+27, r18	; 0x1b
    40e0:	3c 8f       	std	Y+28, r19	; 0x1c
    40e2:	db 01       	movw	r26, r22
    40e4:	ca 01       	movw	r24, r20
    40e6:	8f 77       	andi	r24, 0x7F	; 127
    40e8:	90 70       	andi	r25, 0x00	; 0
    40ea:	a0 70       	andi	r26, 0x00	; 0
    40ec:	b0 70       	andi	r27, 0x00	; 0
    40ee:	80 34       	cpi	r24, 0x40	; 64
    40f0:	91 05       	cpc	r25, r1
    40f2:	a1 05       	cpc	r26, r1
    40f4:	b1 05       	cpc	r27, r1
    40f6:	61 f4       	brne	.+24     	; 0x4110 <__mulsf3+0x1ce>
    40f8:	47 fd       	sbrc	r20, 7
    40fa:	0a c0       	rjmp	.+20     	; 0x4110 <__mulsf3+0x1ce>
    40fc:	e1 14       	cp	r14, r1
    40fe:	f1 04       	cpc	r15, r1
    4100:	01 05       	cpc	r16, r1
    4102:	11 05       	cpc	r17, r1
    4104:	29 f0       	breq	.+10     	; 0x4110 <__mulsf3+0x1ce>
    4106:	40 5c       	subi	r20, 0xC0	; 192
    4108:	5f 4f       	sbci	r21, 0xFF	; 255
    410a:	6f 4f       	sbci	r22, 0xFF	; 255
    410c:	7f 4f       	sbci	r23, 0xFF	; 255
    410e:	40 78       	andi	r20, 0x80	; 128
    4110:	1a 8e       	std	Y+26, r1	; 0x1a
    4112:	fe 17       	cp	r31, r30
    4114:	11 f0       	breq	.+4      	; 0x411a <__mulsf3+0x1d8>
    4116:	81 e0       	ldi	r24, 0x01	; 1
    4118:	8a 8f       	std	Y+26, r24	; 0x1a
    411a:	4d 8f       	std	Y+29, r20	; 0x1d
    411c:	5e 8f       	std	Y+30, r21	; 0x1e
    411e:	6f 8f       	std	Y+31, r22	; 0x1f
    4120:	78 a3       	std	Y+32, r23	; 0x20
    4122:	83 e0       	ldi	r24, 0x03	; 3
    4124:	89 8f       	std	Y+25, r24	; 0x19
    4126:	ce 01       	movw	r24, r28
    4128:	49 96       	adiw	r24, 0x19	; 25
    412a:	0e 94 f1 22 	call	0x45e2	; 0x45e2 <__pack_f>
    412e:	a0 96       	adiw	r28, 0x20	; 32
    4130:	e2 e1       	ldi	r30, 0x12	; 18
    4132:	0c 94 1b 25 	jmp	0x4a36	; 0x4a36 <__epilogue_restores__>

00004136 <__divsf3>:
    4136:	a8 e1       	ldi	r26, 0x18	; 24
    4138:	b0 e0       	ldi	r27, 0x00	; 0
    413a:	e1 ea       	ldi	r30, 0xA1	; 161
    413c:	f0 e2       	ldi	r31, 0x20	; 32
    413e:	0c 94 07 25 	jmp	0x4a0e	; 0x4a0e <__prologue_saves__+0x10>
    4142:	69 83       	std	Y+1, r22	; 0x01
    4144:	7a 83       	std	Y+2, r23	; 0x02
    4146:	8b 83       	std	Y+3, r24	; 0x03
    4148:	9c 83       	std	Y+4, r25	; 0x04
    414a:	2d 83       	std	Y+5, r18	; 0x05
    414c:	3e 83       	std	Y+6, r19	; 0x06
    414e:	4f 83       	std	Y+7, r20	; 0x07
    4150:	58 87       	std	Y+8, r21	; 0x08
    4152:	b9 e0       	ldi	r27, 0x09	; 9
    4154:	eb 2e       	mov	r14, r27
    4156:	f1 2c       	mov	r15, r1
    4158:	ec 0e       	add	r14, r28
    415a:	fd 1e       	adc	r15, r29
    415c:	ce 01       	movw	r24, r28
    415e:	01 96       	adiw	r24, 0x01	; 1
    4160:	b7 01       	movw	r22, r14
    4162:	0e 94 c6 23 	call	0x478c	; 0x478c <__unpack_f>
    4166:	8e 01       	movw	r16, r28
    4168:	0f 5e       	subi	r16, 0xEF	; 239
    416a:	1f 4f       	sbci	r17, 0xFF	; 255
    416c:	ce 01       	movw	r24, r28
    416e:	05 96       	adiw	r24, 0x05	; 5
    4170:	b8 01       	movw	r22, r16
    4172:	0e 94 c6 23 	call	0x478c	; 0x478c <__unpack_f>
    4176:	29 85       	ldd	r18, Y+9	; 0x09
    4178:	22 30       	cpi	r18, 0x02	; 2
    417a:	08 f4       	brcc	.+2      	; 0x417e <__divsf3+0x48>
    417c:	7e c0       	rjmp	.+252    	; 0x427a <__divsf3+0x144>
    417e:	39 89       	ldd	r19, Y+17	; 0x11
    4180:	32 30       	cpi	r19, 0x02	; 2
    4182:	10 f4       	brcc	.+4      	; 0x4188 <__divsf3+0x52>
    4184:	b8 01       	movw	r22, r16
    4186:	7c c0       	rjmp	.+248    	; 0x4280 <__divsf3+0x14a>
    4188:	8a 85       	ldd	r24, Y+10	; 0x0a
    418a:	9a 89       	ldd	r25, Y+18	; 0x12
    418c:	89 27       	eor	r24, r25
    418e:	8a 87       	std	Y+10, r24	; 0x0a
    4190:	24 30       	cpi	r18, 0x04	; 4
    4192:	11 f0       	breq	.+4      	; 0x4198 <__divsf3+0x62>
    4194:	22 30       	cpi	r18, 0x02	; 2
    4196:	31 f4       	brne	.+12     	; 0x41a4 <__divsf3+0x6e>
    4198:	23 17       	cp	r18, r19
    419a:	09 f0       	breq	.+2      	; 0x419e <__divsf3+0x68>
    419c:	6e c0       	rjmp	.+220    	; 0x427a <__divsf3+0x144>
    419e:	6a e3       	ldi	r22, 0x3A	; 58
    41a0:	71 e0       	ldi	r23, 0x01	; 1
    41a2:	6e c0       	rjmp	.+220    	; 0x4280 <__divsf3+0x14a>
    41a4:	34 30       	cpi	r19, 0x04	; 4
    41a6:	39 f4       	brne	.+14     	; 0x41b6 <__divsf3+0x80>
    41a8:	1d 86       	std	Y+13, r1	; 0x0d
    41aa:	1e 86       	std	Y+14, r1	; 0x0e
    41ac:	1f 86       	std	Y+15, r1	; 0x0f
    41ae:	18 8a       	std	Y+16, r1	; 0x10
    41b0:	1c 86       	std	Y+12, r1	; 0x0c
    41b2:	1b 86       	std	Y+11, r1	; 0x0b
    41b4:	04 c0       	rjmp	.+8      	; 0x41be <__divsf3+0x88>
    41b6:	32 30       	cpi	r19, 0x02	; 2
    41b8:	21 f4       	brne	.+8      	; 0x41c2 <__divsf3+0x8c>
    41ba:	84 e0       	ldi	r24, 0x04	; 4
    41bc:	89 87       	std	Y+9, r24	; 0x09
    41be:	b7 01       	movw	r22, r14
    41c0:	5f c0       	rjmp	.+190    	; 0x4280 <__divsf3+0x14a>
    41c2:	2b 85       	ldd	r18, Y+11	; 0x0b
    41c4:	3c 85       	ldd	r19, Y+12	; 0x0c
    41c6:	8b 89       	ldd	r24, Y+19	; 0x13
    41c8:	9c 89       	ldd	r25, Y+20	; 0x14
    41ca:	28 1b       	sub	r18, r24
    41cc:	39 0b       	sbc	r19, r25
    41ce:	3c 87       	std	Y+12, r19	; 0x0c
    41d0:	2b 87       	std	Y+11, r18	; 0x0b
    41d2:	ed 84       	ldd	r14, Y+13	; 0x0d
    41d4:	fe 84       	ldd	r15, Y+14	; 0x0e
    41d6:	0f 85       	ldd	r16, Y+15	; 0x0f
    41d8:	18 89       	ldd	r17, Y+16	; 0x10
    41da:	ad 88       	ldd	r10, Y+21	; 0x15
    41dc:	be 88       	ldd	r11, Y+22	; 0x16
    41de:	cf 88       	ldd	r12, Y+23	; 0x17
    41e0:	d8 8c       	ldd	r13, Y+24	; 0x18
    41e2:	ea 14       	cp	r14, r10
    41e4:	fb 04       	cpc	r15, r11
    41e6:	0c 05       	cpc	r16, r12
    41e8:	1d 05       	cpc	r17, r13
    41ea:	40 f4       	brcc	.+16     	; 0x41fc <__divsf3+0xc6>
    41ec:	ee 0c       	add	r14, r14
    41ee:	ff 1c       	adc	r15, r15
    41f0:	00 1f       	adc	r16, r16
    41f2:	11 1f       	adc	r17, r17
    41f4:	21 50       	subi	r18, 0x01	; 1
    41f6:	30 40       	sbci	r19, 0x00	; 0
    41f8:	3c 87       	std	Y+12, r19	; 0x0c
    41fa:	2b 87       	std	Y+11, r18	; 0x0b
    41fc:	20 e0       	ldi	r18, 0x00	; 0
    41fe:	30 e0       	ldi	r19, 0x00	; 0
    4200:	40 e0       	ldi	r20, 0x00	; 0
    4202:	50 e0       	ldi	r21, 0x00	; 0
    4204:	80 e0       	ldi	r24, 0x00	; 0
    4206:	90 e0       	ldi	r25, 0x00	; 0
    4208:	a0 e0       	ldi	r26, 0x00	; 0
    420a:	b0 e4       	ldi	r27, 0x40	; 64
    420c:	60 e0       	ldi	r22, 0x00	; 0
    420e:	70 e0       	ldi	r23, 0x00	; 0
    4210:	ea 14       	cp	r14, r10
    4212:	fb 04       	cpc	r15, r11
    4214:	0c 05       	cpc	r16, r12
    4216:	1d 05       	cpc	r17, r13
    4218:	40 f0       	brcs	.+16     	; 0x422a <__divsf3+0xf4>
    421a:	28 2b       	or	r18, r24
    421c:	39 2b       	or	r19, r25
    421e:	4a 2b       	or	r20, r26
    4220:	5b 2b       	or	r21, r27
    4222:	ea 18       	sub	r14, r10
    4224:	fb 08       	sbc	r15, r11
    4226:	0c 09       	sbc	r16, r12
    4228:	1d 09       	sbc	r17, r13
    422a:	b6 95       	lsr	r27
    422c:	a7 95       	ror	r26
    422e:	97 95       	ror	r25
    4230:	87 95       	ror	r24
    4232:	ee 0c       	add	r14, r14
    4234:	ff 1c       	adc	r15, r15
    4236:	00 1f       	adc	r16, r16
    4238:	11 1f       	adc	r17, r17
    423a:	6f 5f       	subi	r22, 0xFF	; 255
    423c:	7f 4f       	sbci	r23, 0xFF	; 255
    423e:	6f 31       	cpi	r22, 0x1F	; 31
    4240:	71 05       	cpc	r23, r1
    4242:	31 f7       	brne	.-52     	; 0x4210 <__divsf3+0xda>
    4244:	da 01       	movw	r26, r20
    4246:	c9 01       	movw	r24, r18
    4248:	8f 77       	andi	r24, 0x7F	; 127
    424a:	90 70       	andi	r25, 0x00	; 0
    424c:	a0 70       	andi	r26, 0x00	; 0
    424e:	b0 70       	andi	r27, 0x00	; 0
    4250:	80 34       	cpi	r24, 0x40	; 64
    4252:	91 05       	cpc	r25, r1
    4254:	a1 05       	cpc	r26, r1
    4256:	b1 05       	cpc	r27, r1
    4258:	61 f4       	brne	.+24     	; 0x4272 <__divsf3+0x13c>
    425a:	27 fd       	sbrc	r18, 7
    425c:	0a c0       	rjmp	.+20     	; 0x4272 <__divsf3+0x13c>
    425e:	e1 14       	cp	r14, r1
    4260:	f1 04       	cpc	r15, r1
    4262:	01 05       	cpc	r16, r1
    4264:	11 05       	cpc	r17, r1
    4266:	29 f0       	breq	.+10     	; 0x4272 <__divsf3+0x13c>
    4268:	20 5c       	subi	r18, 0xC0	; 192
    426a:	3f 4f       	sbci	r19, 0xFF	; 255
    426c:	4f 4f       	sbci	r20, 0xFF	; 255
    426e:	5f 4f       	sbci	r21, 0xFF	; 255
    4270:	20 78       	andi	r18, 0x80	; 128
    4272:	2d 87       	std	Y+13, r18	; 0x0d
    4274:	3e 87       	std	Y+14, r19	; 0x0e
    4276:	4f 87       	std	Y+15, r20	; 0x0f
    4278:	58 8b       	std	Y+16, r21	; 0x10
    427a:	be 01       	movw	r22, r28
    427c:	67 5f       	subi	r22, 0xF7	; 247
    427e:	7f 4f       	sbci	r23, 0xFF	; 255
    4280:	cb 01       	movw	r24, r22
    4282:	0e 94 f1 22 	call	0x45e2	; 0x45e2 <__pack_f>
    4286:	68 96       	adiw	r28, 0x18	; 24
    4288:	ea e0       	ldi	r30, 0x0A	; 10
    428a:	0c 94 23 25 	jmp	0x4a46	; 0x4a46 <__epilogue_restores__+0x10>

0000428e <__eqsf2>:
    428e:	a8 e1       	ldi	r26, 0x18	; 24
    4290:	b0 e0       	ldi	r27, 0x00	; 0
    4292:	ed e4       	ldi	r30, 0x4D	; 77
    4294:	f1 e2       	ldi	r31, 0x21	; 33
    4296:	0c 94 0b 25 	jmp	0x4a16	; 0x4a16 <__prologue_saves__+0x18>
    429a:	69 83       	std	Y+1, r22	; 0x01
    429c:	7a 83       	std	Y+2, r23	; 0x02
    429e:	8b 83       	std	Y+3, r24	; 0x03
    42a0:	9c 83       	std	Y+4, r25	; 0x04
    42a2:	2d 83       	std	Y+5, r18	; 0x05
    42a4:	3e 83       	std	Y+6, r19	; 0x06
    42a6:	4f 83       	std	Y+7, r20	; 0x07
    42a8:	58 87       	std	Y+8, r21	; 0x08
    42aa:	89 e0       	ldi	r24, 0x09	; 9
    42ac:	e8 2e       	mov	r14, r24
    42ae:	f1 2c       	mov	r15, r1
    42b0:	ec 0e       	add	r14, r28
    42b2:	fd 1e       	adc	r15, r29
    42b4:	ce 01       	movw	r24, r28
    42b6:	01 96       	adiw	r24, 0x01	; 1
    42b8:	b7 01       	movw	r22, r14
    42ba:	0e 94 c6 23 	call	0x478c	; 0x478c <__unpack_f>
    42be:	8e 01       	movw	r16, r28
    42c0:	0f 5e       	subi	r16, 0xEF	; 239
    42c2:	1f 4f       	sbci	r17, 0xFF	; 255
    42c4:	ce 01       	movw	r24, r28
    42c6:	05 96       	adiw	r24, 0x05	; 5
    42c8:	b8 01       	movw	r22, r16
    42ca:	0e 94 c6 23 	call	0x478c	; 0x478c <__unpack_f>
    42ce:	89 85       	ldd	r24, Y+9	; 0x09
    42d0:	82 30       	cpi	r24, 0x02	; 2
    42d2:	40 f0       	brcs	.+16     	; 0x42e4 <__eqsf2+0x56>
    42d4:	89 89       	ldd	r24, Y+17	; 0x11
    42d6:	82 30       	cpi	r24, 0x02	; 2
    42d8:	28 f0       	brcs	.+10     	; 0x42e4 <__eqsf2+0x56>
    42da:	c7 01       	movw	r24, r14
    42dc:	b8 01       	movw	r22, r16
    42de:	0e 94 3e 24 	call	0x487c	; 0x487c <__fpcmp_parts_f>
    42e2:	01 c0       	rjmp	.+2      	; 0x42e6 <__eqsf2+0x58>
    42e4:	81 e0       	ldi	r24, 0x01	; 1
    42e6:	68 96       	adiw	r28, 0x18	; 24
    42e8:	e6 e0       	ldi	r30, 0x06	; 6
    42ea:	0c 94 27 25 	jmp	0x4a4e	; 0x4a4e <__epilogue_restores__+0x18>

000042ee <__floatsisf>:
    42ee:	a8 e0       	ldi	r26, 0x08	; 8
    42f0:	b0 e0       	ldi	r27, 0x00	; 0
    42f2:	ed e7       	ldi	r30, 0x7D	; 125
    42f4:	f1 e2       	ldi	r31, 0x21	; 33
    42f6:	0c 94 08 25 	jmp	0x4a10	; 0x4a10 <__prologue_saves__+0x12>
    42fa:	9b 01       	movw	r18, r22
    42fc:	ac 01       	movw	r20, r24
    42fe:	83 e0       	ldi	r24, 0x03	; 3
    4300:	89 83       	std	Y+1, r24	; 0x01
    4302:	da 01       	movw	r26, r20
    4304:	c9 01       	movw	r24, r18
    4306:	88 27       	eor	r24, r24
    4308:	b7 fd       	sbrc	r27, 7
    430a:	83 95       	inc	r24
    430c:	99 27       	eor	r25, r25
    430e:	aa 27       	eor	r26, r26
    4310:	bb 27       	eor	r27, r27
    4312:	b8 2e       	mov	r11, r24
    4314:	21 15       	cp	r18, r1
    4316:	31 05       	cpc	r19, r1
    4318:	41 05       	cpc	r20, r1
    431a:	51 05       	cpc	r21, r1
    431c:	19 f4       	brne	.+6      	; 0x4324 <__floatsisf+0x36>
    431e:	82 e0       	ldi	r24, 0x02	; 2
    4320:	89 83       	std	Y+1, r24	; 0x01
    4322:	3a c0       	rjmp	.+116    	; 0x4398 <__floatsisf+0xaa>
    4324:	88 23       	and	r24, r24
    4326:	a9 f0       	breq	.+42     	; 0x4352 <__floatsisf+0x64>
    4328:	20 30       	cpi	r18, 0x00	; 0
    432a:	80 e0       	ldi	r24, 0x00	; 0
    432c:	38 07       	cpc	r19, r24
    432e:	80 e0       	ldi	r24, 0x00	; 0
    4330:	48 07       	cpc	r20, r24
    4332:	80 e8       	ldi	r24, 0x80	; 128
    4334:	58 07       	cpc	r21, r24
    4336:	29 f4       	brne	.+10     	; 0x4342 <__floatsisf+0x54>
    4338:	60 e0       	ldi	r22, 0x00	; 0
    433a:	70 e0       	ldi	r23, 0x00	; 0
    433c:	80 e0       	ldi	r24, 0x00	; 0
    433e:	9f ec       	ldi	r25, 0xCF	; 207
    4340:	30 c0       	rjmp	.+96     	; 0x43a2 <__floatsisf+0xb4>
    4342:	ee 24       	eor	r14, r14
    4344:	ff 24       	eor	r15, r15
    4346:	87 01       	movw	r16, r14
    4348:	e2 1a       	sub	r14, r18
    434a:	f3 0a       	sbc	r15, r19
    434c:	04 0b       	sbc	r16, r20
    434e:	15 0b       	sbc	r17, r21
    4350:	02 c0       	rjmp	.+4      	; 0x4356 <__floatsisf+0x68>
    4352:	79 01       	movw	r14, r18
    4354:	8a 01       	movw	r16, r20
    4356:	8e e1       	ldi	r24, 0x1E	; 30
    4358:	c8 2e       	mov	r12, r24
    435a:	d1 2c       	mov	r13, r1
    435c:	dc 82       	std	Y+4, r13	; 0x04
    435e:	cb 82       	std	Y+3, r12	; 0x03
    4360:	ed 82       	std	Y+5, r14	; 0x05
    4362:	fe 82       	std	Y+6, r15	; 0x06
    4364:	0f 83       	std	Y+7, r16	; 0x07
    4366:	18 87       	std	Y+8, r17	; 0x08
    4368:	c8 01       	movw	r24, r16
    436a:	b7 01       	movw	r22, r14
    436c:	0e 94 a2 22 	call	0x4544	; 0x4544 <__clzsi2>
    4370:	01 97       	sbiw	r24, 0x01	; 1
    4372:	18 16       	cp	r1, r24
    4374:	19 06       	cpc	r1, r25
    4376:	84 f4       	brge	.+32     	; 0x4398 <__floatsisf+0xaa>
    4378:	08 2e       	mov	r0, r24
    437a:	04 c0       	rjmp	.+8      	; 0x4384 <__floatsisf+0x96>
    437c:	ee 0c       	add	r14, r14
    437e:	ff 1c       	adc	r15, r15
    4380:	00 1f       	adc	r16, r16
    4382:	11 1f       	adc	r17, r17
    4384:	0a 94       	dec	r0
    4386:	d2 f7       	brpl	.-12     	; 0x437c <__floatsisf+0x8e>
    4388:	ed 82       	std	Y+5, r14	; 0x05
    438a:	fe 82       	std	Y+6, r15	; 0x06
    438c:	0f 83       	std	Y+7, r16	; 0x07
    438e:	18 87       	std	Y+8, r17	; 0x08
    4390:	c8 1a       	sub	r12, r24
    4392:	d9 0a       	sbc	r13, r25
    4394:	dc 82       	std	Y+4, r13	; 0x04
    4396:	cb 82       	std	Y+3, r12	; 0x03
    4398:	ba 82       	std	Y+2, r11	; 0x02
    439a:	ce 01       	movw	r24, r28
    439c:	01 96       	adiw	r24, 0x01	; 1
    439e:	0e 94 f1 22 	call	0x45e2	; 0x45e2 <__pack_f>
    43a2:	28 96       	adiw	r28, 0x08	; 8
    43a4:	e9 e0       	ldi	r30, 0x09	; 9
    43a6:	0c 94 24 25 	jmp	0x4a48	; 0x4a48 <__epilogue_restores__+0x12>

000043aa <__fixsfsi>:
    43aa:	ac e0       	ldi	r26, 0x0C	; 12
    43ac:	b0 e0       	ldi	r27, 0x00	; 0
    43ae:	eb ed       	ldi	r30, 0xDB	; 219
    43b0:	f1 e2       	ldi	r31, 0x21	; 33
    43b2:	0c 94 0f 25 	jmp	0x4a1e	; 0x4a1e <__prologue_saves__+0x20>
    43b6:	69 83       	std	Y+1, r22	; 0x01
    43b8:	7a 83       	std	Y+2, r23	; 0x02
    43ba:	8b 83       	std	Y+3, r24	; 0x03
    43bc:	9c 83       	std	Y+4, r25	; 0x04
    43be:	ce 01       	movw	r24, r28
    43c0:	01 96       	adiw	r24, 0x01	; 1
    43c2:	be 01       	movw	r22, r28
    43c4:	6b 5f       	subi	r22, 0xFB	; 251
    43c6:	7f 4f       	sbci	r23, 0xFF	; 255
    43c8:	0e 94 c6 23 	call	0x478c	; 0x478c <__unpack_f>
    43cc:	8d 81       	ldd	r24, Y+5	; 0x05
    43ce:	82 30       	cpi	r24, 0x02	; 2
    43d0:	61 f1       	breq	.+88     	; 0x442a <__fixsfsi+0x80>
    43d2:	82 30       	cpi	r24, 0x02	; 2
    43d4:	50 f1       	brcs	.+84     	; 0x442a <__fixsfsi+0x80>
    43d6:	84 30       	cpi	r24, 0x04	; 4
    43d8:	21 f4       	brne	.+8      	; 0x43e2 <__fixsfsi+0x38>
    43da:	8e 81       	ldd	r24, Y+6	; 0x06
    43dc:	88 23       	and	r24, r24
    43de:	51 f1       	breq	.+84     	; 0x4434 <__fixsfsi+0x8a>
    43e0:	2e c0       	rjmp	.+92     	; 0x443e <__fixsfsi+0x94>
    43e2:	2f 81       	ldd	r18, Y+7	; 0x07
    43e4:	38 85       	ldd	r19, Y+8	; 0x08
    43e6:	37 fd       	sbrc	r19, 7
    43e8:	20 c0       	rjmp	.+64     	; 0x442a <__fixsfsi+0x80>
    43ea:	6e 81       	ldd	r22, Y+6	; 0x06
    43ec:	2f 31       	cpi	r18, 0x1F	; 31
    43ee:	31 05       	cpc	r19, r1
    43f0:	1c f0       	brlt	.+6      	; 0x43f8 <__fixsfsi+0x4e>
    43f2:	66 23       	and	r22, r22
    43f4:	f9 f0       	breq	.+62     	; 0x4434 <__fixsfsi+0x8a>
    43f6:	23 c0       	rjmp	.+70     	; 0x443e <__fixsfsi+0x94>
    43f8:	8e e1       	ldi	r24, 0x1E	; 30
    43fa:	90 e0       	ldi	r25, 0x00	; 0
    43fc:	82 1b       	sub	r24, r18
    43fe:	93 0b       	sbc	r25, r19
    4400:	29 85       	ldd	r18, Y+9	; 0x09
    4402:	3a 85       	ldd	r19, Y+10	; 0x0a
    4404:	4b 85       	ldd	r20, Y+11	; 0x0b
    4406:	5c 85       	ldd	r21, Y+12	; 0x0c
    4408:	04 c0       	rjmp	.+8      	; 0x4412 <__fixsfsi+0x68>
    440a:	56 95       	lsr	r21
    440c:	47 95       	ror	r20
    440e:	37 95       	ror	r19
    4410:	27 95       	ror	r18
    4412:	8a 95       	dec	r24
    4414:	d2 f7       	brpl	.-12     	; 0x440a <__fixsfsi+0x60>
    4416:	66 23       	and	r22, r22
    4418:	b1 f0       	breq	.+44     	; 0x4446 <__fixsfsi+0x9c>
    441a:	50 95       	com	r21
    441c:	40 95       	com	r20
    441e:	30 95       	com	r19
    4420:	21 95       	neg	r18
    4422:	3f 4f       	sbci	r19, 0xFF	; 255
    4424:	4f 4f       	sbci	r20, 0xFF	; 255
    4426:	5f 4f       	sbci	r21, 0xFF	; 255
    4428:	0e c0       	rjmp	.+28     	; 0x4446 <__fixsfsi+0x9c>
    442a:	20 e0       	ldi	r18, 0x00	; 0
    442c:	30 e0       	ldi	r19, 0x00	; 0
    442e:	40 e0       	ldi	r20, 0x00	; 0
    4430:	50 e0       	ldi	r21, 0x00	; 0
    4432:	09 c0       	rjmp	.+18     	; 0x4446 <__fixsfsi+0x9c>
    4434:	2f ef       	ldi	r18, 0xFF	; 255
    4436:	3f ef       	ldi	r19, 0xFF	; 255
    4438:	4f ef       	ldi	r20, 0xFF	; 255
    443a:	5f e7       	ldi	r21, 0x7F	; 127
    443c:	04 c0       	rjmp	.+8      	; 0x4446 <__fixsfsi+0x9c>
    443e:	20 e0       	ldi	r18, 0x00	; 0
    4440:	30 e0       	ldi	r19, 0x00	; 0
    4442:	40 e0       	ldi	r20, 0x00	; 0
    4444:	50 e8       	ldi	r21, 0x80	; 128
    4446:	b9 01       	movw	r22, r18
    4448:	ca 01       	movw	r24, r20
    444a:	2c 96       	adiw	r28, 0x0c	; 12
    444c:	e2 e0       	ldi	r30, 0x02	; 2
    444e:	0c 94 2b 25 	jmp	0x4a56	; 0x4a56 <__epilogue_restores__+0x20>

00004452 <__floatunsisf>:
    4452:	a8 e0       	ldi	r26, 0x08	; 8
    4454:	b0 e0       	ldi	r27, 0x00	; 0
    4456:	ef e2       	ldi	r30, 0x2F	; 47
    4458:	f2 e2       	ldi	r31, 0x22	; 34
    445a:	0c 94 07 25 	jmp	0x4a0e	; 0x4a0e <__prologue_saves__+0x10>
    445e:	7b 01       	movw	r14, r22
    4460:	8c 01       	movw	r16, r24
    4462:	61 15       	cp	r22, r1
    4464:	71 05       	cpc	r23, r1
    4466:	81 05       	cpc	r24, r1
    4468:	91 05       	cpc	r25, r1
    446a:	19 f4       	brne	.+6      	; 0x4472 <__floatunsisf+0x20>
    446c:	82 e0       	ldi	r24, 0x02	; 2
    446e:	89 83       	std	Y+1, r24	; 0x01
    4470:	60 c0       	rjmp	.+192    	; 0x4532 <__floatunsisf+0xe0>
    4472:	83 e0       	ldi	r24, 0x03	; 3
    4474:	89 83       	std	Y+1, r24	; 0x01
    4476:	8e e1       	ldi	r24, 0x1E	; 30
    4478:	c8 2e       	mov	r12, r24
    447a:	d1 2c       	mov	r13, r1
    447c:	dc 82       	std	Y+4, r13	; 0x04
    447e:	cb 82       	std	Y+3, r12	; 0x03
    4480:	ed 82       	std	Y+5, r14	; 0x05
    4482:	fe 82       	std	Y+6, r15	; 0x06
    4484:	0f 83       	std	Y+7, r16	; 0x07
    4486:	18 87       	std	Y+8, r17	; 0x08
    4488:	c8 01       	movw	r24, r16
    448a:	b7 01       	movw	r22, r14
    448c:	0e 94 a2 22 	call	0x4544	; 0x4544 <__clzsi2>
    4490:	fc 01       	movw	r30, r24
    4492:	31 97       	sbiw	r30, 0x01	; 1
    4494:	f7 ff       	sbrs	r31, 7
    4496:	3b c0       	rjmp	.+118    	; 0x450e <__floatunsisf+0xbc>
    4498:	22 27       	eor	r18, r18
    449a:	33 27       	eor	r19, r19
    449c:	2e 1b       	sub	r18, r30
    449e:	3f 0b       	sbc	r19, r31
    44a0:	57 01       	movw	r10, r14
    44a2:	68 01       	movw	r12, r16
    44a4:	02 2e       	mov	r0, r18
    44a6:	04 c0       	rjmp	.+8      	; 0x44b0 <__floatunsisf+0x5e>
    44a8:	d6 94       	lsr	r13
    44aa:	c7 94       	ror	r12
    44ac:	b7 94       	ror	r11
    44ae:	a7 94       	ror	r10
    44b0:	0a 94       	dec	r0
    44b2:	d2 f7       	brpl	.-12     	; 0x44a8 <__floatunsisf+0x56>
    44b4:	40 e0       	ldi	r20, 0x00	; 0
    44b6:	50 e0       	ldi	r21, 0x00	; 0
    44b8:	60 e0       	ldi	r22, 0x00	; 0
    44ba:	70 e0       	ldi	r23, 0x00	; 0
    44bc:	81 e0       	ldi	r24, 0x01	; 1
    44be:	90 e0       	ldi	r25, 0x00	; 0
    44c0:	a0 e0       	ldi	r26, 0x00	; 0
    44c2:	b0 e0       	ldi	r27, 0x00	; 0
    44c4:	04 c0       	rjmp	.+8      	; 0x44ce <__floatunsisf+0x7c>
    44c6:	88 0f       	add	r24, r24
    44c8:	99 1f       	adc	r25, r25
    44ca:	aa 1f       	adc	r26, r26
    44cc:	bb 1f       	adc	r27, r27
    44ce:	2a 95       	dec	r18
    44d0:	d2 f7       	brpl	.-12     	; 0x44c6 <__floatunsisf+0x74>
    44d2:	01 97       	sbiw	r24, 0x01	; 1
    44d4:	a1 09       	sbc	r26, r1
    44d6:	b1 09       	sbc	r27, r1
    44d8:	8e 21       	and	r24, r14
    44da:	9f 21       	and	r25, r15
    44dc:	a0 23       	and	r26, r16
    44de:	b1 23       	and	r27, r17
    44e0:	00 97       	sbiw	r24, 0x00	; 0
    44e2:	a1 05       	cpc	r26, r1
    44e4:	b1 05       	cpc	r27, r1
    44e6:	21 f0       	breq	.+8      	; 0x44f0 <__floatunsisf+0x9e>
    44e8:	41 e0       	ldi	r20, 0x01	; 1
    44ea:	50 e0       	ldi	r21, 0x00	; 0
    44ec:	60 e0       	ldi	r22, 0x00	; 0
    44ee:	70 e0       	ldi	r23, 0x00	; 0
    44f0:	4a 29       	or	r20, r10
    44f2:	5b 29       	or	r21, r11
    44f4:	6c 29       	or	r22, r12
    44f6:	7d 29       	or	r23, r13
    44f8:	4d 83       	std	Y+5, r20	; 0x05
    44fa:	5e 83       	std	Y+6, r21	; 0x06
    44fc:	6f 83       	std	Y+7, r22	; 0x07
    44fe:	78 87       	std	Y+8, r23	; 0x08
    4500:	8e e1       	ldi	r24, 0x1E	; 30
    4502:	90 e0       	ldi	r25, 0x00	; 0
    4504:	8e 1b       	sub	r24, r30
    4506:	9f 0b       	sbc	r25, r31
    4508:	9c 83       	std	Y+4, r25	; 0x04
    450a:	8b 83       	std	Y+3, r24	; 0x03
    450c:	12 c0       	rjmp	.+36     	; 0x4532 <__floatunsisf+0xe0>
    450e:	30 97       	sbiw	r30, 0x00	; 0
    4510:	81 f0       	breq	.+32     	; 0x4532 <__floatunsisf+0xe0>
    4512:	0e 2e       	mov	r0, r30
    4514:	04 c0       	rjmp	.+8      	; 0x451e <__floatunsisf+0xcc>
    4516:	ee 0c       	add	r14, r14
    4518:	ff 1c       	adc	r15, r15
    451a:	00 1f       	adc	r16, r16
    451c:	11 1f       	adc	r17, r17
    451e:	0a 94       	dec	r0
    4520:	d2 f7       	brpl	.-12     	; 0x4516 <__floatunsisf+0xc4>
    4522:	ed 82       	std	Y+5, r14	; 0x05
    4524:	fe 82       	std	Y+6, r15	; 0x06
    4526:	0f 83       	std	Y+7, r16	; 0x07
    4528:	18 87       	std	Y+8, r17	; 0x08
    452a:	ce 1a       	sub	r12, r30
    452c:	df 0a       	sbc	r13, r31
    452e:	dc 82       	std	Y+4, r13	; 0x04
    4530:	cb 82       	std	Y+3, r12	; 0x03
    4532:	1a 82       	std	Y+2, r1	; 0x02
    4534:	ce 01       	movw	r24, r28
    4536:	01 96       	adiw	r24, 0x01	; 1
    4538:	0e 94 f1 22 	call	0x45e2	; 0x45e2 <__pack_f>
    453c:	28 96       	adiw	r28, 0x08	; 8
    453e:	ea e0       	ldi	r30, 0x0A	; 10
    4540:	0c 94 23 25 	jmp	0x4a46	; 0x4a46 <__epilogue_restores__+0x10>

00004544 <__clzsi2>:
    4544:	ef 92       	push	r14
    4546:	ff 92       	push	r15
    4548:	0f 93       	push	r16
    454a:	1f 93       	push	r17
    454c:	7b 01       	movw	r14, r22
    454e:	8c 01       	movw	r16, r24
    4550:	80 e0       	ldi	r24, 0x00	; 0
    4552:	e8 16       	cp	r14, r24
    4554:	80 e0       	ldi	r24, 0x00	; 0
    4556:	f8 06       	cpc	r15, r24
    4558:	81 e0       	ldi	r24, 0x01	; 1
    455a:	08 07       	cpc	r16, r24
    455c:	80 e0       	ldi	r24, 0x00	; 0
    455e:	18 07       	cpc	r17, r24
    4560:	88 f4       	brcc	.+34     	; 0x4584 <__clzsi2+0x40>
    4562:	8f ef       	ldi	r24, 0xFF	; 255
    4564:	e8 16       	cp	r14, r24
    4566:	f1 04       	cpc	r15, r1
    4568:	01 05       	cpc	r16, r1
    456a:	11 05       	cpc	r17, r1
    456c:	31 f0       	breq	.+12     	; 0x457a <__clzsi2+0x36>
    456e:	28 f0       	brcs	.+10     	; 0x457a <__clzsi2+0x36>
    4570:	88 e0       	ldi	r24, 0x08	; 8
    4572:	90 e0       	ldi	r25, 0x00	; 0
    4574:	a0 e0       	ldi	r26, 0x00	; 0
    4576:	b0 e0       	ldi	r27, 0x00	; 0
    4578:	17 c0       	rjmp	.+46     	; 0x45a8 <__clzsi2+0x64>
    457a:	80 e0       	ldi	r24, 0x00	; 0
    457c:	90 e0       	ldi	r25, 0x00	; 0
    457e:	a0 e0       	ldi	r26, 0x00	; 0
    4580:	b0 e0       	ldi	r27, 0x00	; 0
    4582:	12 c0       	rjmp	.+36     	; 0x45a8 <__clzsi2+0x64>
    4584:	80 e0       	ldi	r24, 0x00	; 0
    4586:	e8 16       	cp	r14, r24
    4588:	80 e0       	ldi	r24, 0x00	; 0
    458a:	f8 06       	cpc	r15, r24
    458c:	80 e0       	ldi	r24, 0x00	; 0
    458e:	08 07       	cpc	r16, r24
    4590:	81 e0       	ldi	r24, 0x01	; 1
    4592:	18 07       	cpc	r17, r24
    4594:	28 f0       	brcs	.+10     	; 0x45a0 <__clzsi2+0x5c>
    4596:	88 e1       	ldi	r24, 0x18	; 24
    4598:	90 e0       	ldi	r25, 0x00	; 0
    459a:	a0 e0       	ldi	r26, 0x00	; 0
    459c:	b0 e0       	ldi	r27, 0x00	; 0
    459e:	04 c0       	rjmp	.+8      	; 0x45a8 <__clzsi2+0x64>
    45a0:	80 e1       	ldi	r24, 0x10	; 16
    45a2:	90 e0       	ldi	r25, 0x00	; 0
    45a4:	a0 e0       	ldi	r26, 0x00	; 0
    45a6:	b0 e0       	ldi	r27, 0x00	; 0
    45a8:	20 e2       	ldi	r18, 0x20	; 32
    45aa:	30 e0       	ldi	r19, 0x00	; 0
    45ac:	40 e0       	ldi	r20, 0x00	; 0
    45ae:	50 e0       	ldi	r21, 0x00	; 0
    45b0:	28 1b       	sub	r18, r24
    45b2:	39 0b       	sbc	r19, r25
    45b4:	4a 0b       	sbc	r20, r26
    45b6:	5b 0b       	sbc	r21, r27
    45b8:	04 c0       	rjmp	.+8      	; 0x45c2 <__clzsi2+0x7e>
    45ba:	16 95       	lsr	r17
    45bc:	07 95       	ror	r16
    45be:	f7 94       	ror	r15
    45c0:	e7 94       	ror	r14
    45c2:	8a 95       	dec	r24
    45c4:	d2 f7       	brpl	.-12     	; 0x45ba <__clzsi2+0x76>
    45c6:	f7 01       	movw	r30, r14
    45c8:	ee 5b       	subi	r30, 0xBE	; 190
    45ca:	fe 4f       	sbci	r31, 0xFE	; 254
    45cc:	80 81       	ld	r24, Z
    45ce:	28 1b       	sub	r18, r24
    45d0:	31 09       	sbc	r19, r1
    45d2:	41 09       	sbc	r20, r1
    45d4:	51 09       	sbc	r21, r1
    45d6:	c9 01       	movw	r24, r18
    45d8:	1f 91       	pop	r17
    45da:	0f 91       	pop	r16
    45dc:	ff 90       	pop	r15
    45de:	ef 90       	pop	r14
    45e0:	08 95       	ret

000045e2 <__pack_f>:
    45e2:	df 92       	push	r13
    45e4:	ef 92       	push	r14
    45e6:	ff 92       	push	r15
    45e8:	0f 93       	push	r16
    45ea:	1f 93       	push	r17
    45ec:	fc 01       	movw	r30, r24
    45ee:	e4 80       	ldd	r14, Z+4	; 0x04
    45f0:	f5 80       	ldd	r15, Z+5	; 0x05
    45f2:	06 81       	ldd	r16, Z+6	; 0x06
    45f4:	17 81       	ldd	r17, Z+7	; 0x07
    45f6:	d1 80       	ldd	r13, Z+1	; 0x01
    45f8:	80 81       	ld	r24, Z
    45fa:	82 30       	cpi	r24, 0x02	; 2
    45fc:	48 f4       	brcc	.+18     	; 0x4610 <__pack_f+0x2e>
    45fe:	80 e0       	ldi	r24, 0x00	; 0
    4600:	90 e0       	ldi	r25, 0x00	; 0
    4602:	a0 e1       	ldi	r26, 0x10	; 16
    4604:	b0 e0       	ldi	r27, 0x00	; 0
    4606:	e8 2a       	or	r14, r24
    4608:	f9 2a       	or	r15, r25
    460a:	0a 2b       	or	r16, r26
    460c:	1b 2b       	or	r17, r27
    460e:	a5 c0       	rjmp	.+330    	; 0x475a <__pack_f+0x178>
    4610:	84 30       	cpi	r24, 0x04	; 4
    4612:	09 f4       	brne	.+2      	; 0x4616 <__pack_f+0x34>
    4614:	9f c0       	rjmp	.+318    	; 0x4754 <__pack_f+0x172>
    4616:	82 30       	cpi	r24, 0x02	; 2
    4618:	21 f4       	brne	.+8      	; 0x4622 <__pack_f+0x40>
    461a:	ee 24       	eor	r14, r14
    461c:	ff 24       	eor	r15, r15
    461e:	87 01       	movw	r16, r14
    4620:	05 c0       	rjmp	.+10     	; 0x462c <__pack_f+0x4a>
    4622:	e1 14       	cp	r14, r1
    4624:	f1 04       	cpc	r15, r1
    4626:	01 05       	cpc	r16, r1
    4628:	11 05       	cpc	r17, r1
    462a:	19 f4       	brne	.+6      	; 0x4632 <__pack_f+0x50>
    462c:	e0 e0       	ldi	r30, 0x00	; 0
    462e:	f0 e0       	ldi	r31, 0x00	; 0
    4630:	96 c0       	rjmp	.+300    	; 0x475e <__pack_f+0x17c>
    4632:	62 81       	ldd	r22, Z+2	; 0x02
    4634:	73 81       	ldd	r23, Z+3	; 0x03
    4636:	9f ef       	ldi	r25, 0xFF	; 255
    4638:	62 38       	cpi	r22, 0x82	; 130
    463a:	79 07       	cpc	r23, r25
    463c:	0c f0       	brlt	.+2      	; 0x4640 <__pack_f+0x5e>
    463e:	5b c0       	rjmp	.+182    	; 0x46f6 <__pack_f+0x114>
    4640:	22 e8       	ldi	r18, 0x82	; 130
    4642:	3f ef       	ldi	r19, 0xFF	; 255
    4644:	26 1b       	sub	r18, r22
    4646:	37 0b       	sbc	r19, r23
    4648:	2a 31       	cpi	r18, 0x1A	; 26
    464a:	31 05       	cpc	r19, r1
    464c:	2c f0       	brlt	.+10     	; 0x4658 <__pack_f+0x76>
    464e:	20 e0       	ldi	r18, 0x00	; 0
    4650:	30 e0       	ldi	r19, 0x00	; 0
    4652:	40 e0       	ldi	r20, 0x00	; 0
    4654:	50 e0       	ldi	r21, 0x00	; 0
    4656:	2a c0       	rjmp	.+84     	; 0x46ac <__pack_f+0xca>
    4658:	b8 01       	movw	r22, r16
    465a:	a7 01       	movw	r20, r14
    465c:	02 2e       	mov	r0, r18
    465e:	04 c0       	rjmp	.+8      	; 0x4668 <__pack_f+0x86>
    4660:	76 95       	lsr	r23
    4662:	67 95       	ror	r22
    4664:	57 95       	ror	r21
    4666:	47 95       	ror	r20
    4668:	0a 94       	dec	r0
    466a:	d2 f7       	brpl	.-12     	; 0x4660 <__pack_f+0x7e>
    466c:	81 e0       	ldi	r24, 0x01	; 1
    466e:	90 e0       	ldi	r25, 0x00	; 0
    4670:	a0 e0       	ldi	r26, 0x00	; 0
    4672:	b0 e0       	ldi	r27, 0x00	; 0
    4674:	04 c0       	rjmp	.+8      	; 0x467e <__pack_f+0x9c>
    4676:	88 0f       	add	r24, r24
    4678:	99 1f       	adc	r25, r25
    467a:	aa 1f       	adc	r26, r26
    467c:	bb 1f       	adc	r27, r27
    467e:	2a 95       	dec	r18
    4680:	d2 f7       	brpl	.-12     	; 0x4676 <__pack_f+0x94>
    4682:	01 97       	sbiw	r24, 0x01	; 1
    4684:	a1 09       	sbc	r26, r1
    4686:	b1 09       	sbc	r27, r1
    4688:	8e 21       	and	r24, r14
    468a:	9f 21       	and	r25, r15
    468c:	a0 23       	and	r26, r16
    468e:	b1 23       	and	r27, r17
    4690:	00 97       	sbiw	r24, 0x00	; 0
    4692:	a1 05       	cpc	r26, r1
    4694:	b1 05       	cpc	r27, r1
    4696:	21 f0       	breq	.+8      	; 0x46a0 <__pack_f+0xbe>
    4698:	81 e0       	ldi	r24, 0x01	; 1
    469a:	90 e0       	ldi	r25, 0x00	; 0
    469c:	a0 e0       	ldi	r26, 0x00	; 0
    469e:	b0 e0       	ldi	r27, 0x00	; 0
    46a0:	9a 01       	movw	r18, r20
    46a2:	ab 01       	movw	r20, r22
    46a4:	28 2b       	or	r18, r24
    46a6:	39 2b       	or	r19, r25
    46a8:	4a 2b       	or	r20, r26
    46aa:	5b 2b       	or	r21, r27
    46ac:	da 01       	movw	r26, r20
    46ae:	c9 01       	movw	r24, r18
    46b0:	8f 77       	andi	r24, 0x7F	; 127
    46b2:	90 70       	andi	r25, 0x00	; 0
    46b4:	a0 70       	andi	r26, 0x00	; 0
    46b6:	b0 70       	andi	r27, 0x00	; 0
    46b8:	80 34       	cpi	r24, 0x40	; 64
    46ba:	91 05       	cpc	r25, r1
    46bc:	a1 05       	cpc	r26, r1
    46be:	b1 05       	cpc	r27, r1
    46c0:	39 f4       	brne	.+14     	; 0x46d0 <__pack_f+0xee>
    46c2:	27 ff       	sbrs	r18, 7
    46c4:	09 c0       	rjmp	.+18     	; 0x46d8 <__pack_f+0xf6>
    46c6:	20 5c       	subi	r18, 0xC0	; 192
    46c8:	3f 4f       	sbci	r19, 0xFF	; 255
    46ca:	4f 4f       	sbci	r20, 0xFF	; 255
    46cc:	5f 4f       	sbci	r21, 0xFF	; 255
    46ce:	04 c0       	rjmp	.+8      	; 0x46d8 <__pack_f+0xf6>
    46d0:	21 5c       	subi	r18, 0xC1	; 193
    46d2:	3f 4f       	sbci	r19, 0xFF	; 255
    46d4:	4f 4f       	sbci	r20, 0xFF	; 255
    46d6:	5f 4f       	sbci	r21, 0xFF	; 255
    46d8:	e0 e0       	ldi	r30, 0x00	; 0
    46da:	f0 e0       	ldi	r31, 0x00	; 0
    46dc:	20 30       	cpi	r18, 0x00	; 0
    46de:	a0 e0       	ldi	r26, 0x00	; 0
    46e0:	3a 07       	cpc	r19, r26
    46e2:	a0 e0       	ldi	r26, 0x00	; 0
    46e4:	4a 07       	cpc	r20, r26
    46e6:	a0 e4       	ldi	r26, 0x40	; 64
    46e8:	5a 07       	cpc	r21, r26
    46ea:	10 f0       	brcs	.+4      	; 0x46f0 <__pack_f+0x10e>
    46ec:	e1 e0       	ldi	r30, 0x01	; 1
    46ee:	f0 e0       	ldi	r31, 0x00	; 0
    46f0:	79 01       	movw	r14, r18
    46f2:	8a 01       	movw	r16, r20
    46f4:	27 c0       	rjmp	.+78     	; 0x4744 <__pack_f+0x162>
    46f6:	60 38       	cpi	r22, 0x80	; 128
    46f8:	71 05       	cpc	r23, r1
    46fa:	64 f5       	brge	.+88     	; 0x4754 <__pack_f+0x172>
    46fc:	fb 01       	movw	r30, r22
    46fe:	e1 58       	subi	r30, 0x81	; 129
    4700:	ff 4f       	sbci	r31, 0xFF	; 255
    4702:	d8 01       	movw	r26, r16
    4704:	c7 01       	movw	r24, r14
    4706:	8f 77       	andi	r24, 0x7F	; 127
    4708:	90 70       	andi	r25, 0x00	; 0
    470a:	a0 70       	andi	r26, 0x00	; 0
    470c:	b0 70       	andi	r27, 0x00	; 0
    470e:	80 34       	cpi	r24, 0x40	; 64
    4710:	91 05       	cpc	r25, r1
    4712:	a1 05       	cpc	r26, r1
    4714:	b1 05       	cpc	r27, r1
    4716:	39 f4       	brne	.+14     	; 0x4726 <__pack_f+0x144>
    4718:	e7 fe       	sbrs	r14, 7
    471a:	0d c0       	rjmp	.+26     	; 0x4736 <__pack_f+0x154>
    471c:	80 e4       	ldi	r24, 0x40	; 64
    471e:	90 e0       	ldi	r25, 0x00	; 0
    4720:	a0 e0       	ldi	r26, 0x00	; 0
    4722:	b0 e0       	ldi	r27, 0x00	; 0
    4724:	04 c0       	rjmp	.+8      	; 0x472e <__pack_f+0x14c>
    4726:	8f e3       	ldi	r24, 0x3F	; 63
    4728:	90 e0       	ldi	r25, 0x00	; 0
    472a:	a0 e0       	ldi	r26, 0x00	; 0
    472c:	b0 e0       	ldi	r27, 0x00	; 0
    472e:	e8 0e       	add	r14, r24
    4730:	f9 1e       	adc	r15, r25
    4732:	0a 1f       	adc	r16, r26
    4734:	1b 1f       	adc	r17, r27
    4736:	17 ff       	sbrs	r17, 7
    4738:	05 c0       	rjmp	.+10     	; 0x4744 <__pack_f+0x162>
    473a:	16 95       	lsr	r17
    473c:	07 95       	ror	r16
    473e:	f7 94       	ror	r15
    4740:	e7 94       	ror	r14
    4742:	31 96       	adiw	r30, 0x01	; 1
    4744:	87 e0       	ldi	r24, 0x07	; 7
    4746:	16 95       	lsr	r17
    4748:	07 95       	ror	r16
    474a:	f7 94       	ror	r15
    474c:	e7 94       	ror	r14
    474e:	8a 95       	dec	r24
    4750:	d1 f7       	brne	.-12     	; 0x4746 <__pack_f+0x164>
    4752:	05 c0       	rjmp	.+10     	; 0x475e <__pack_f+0x17c>
    4754:	ee 24       	eor	r14, r14
    4756:	ff 24       	eor	r15, r15
    4758:	87 01       	movw	r16, r14
    475a:	ef ef       	ldi	r30, 0xFF	; 255
    475c:	f0 e0       	ldi	r31, 0x00	; 0
    475e:	6e 2f       	mov	r22, r30
    4760:	67 95       	ror	r22
    4762:	66 27       	eor	r22, r22
    4764:	67 95       	ror	r22
    4766:	90 2f       	mov	r25, r16
    4768:	9f 77       	andi	r25, 0x7F	; 127
    476a:	d7 94       	ror	r13
    476c:	dd 24       	eor	r13, r13
    476e:	d7 94       	ror	r13
    4770:	8e 2f       	mov	r24, r30
    4772:	86 95       	lsr	r24
    4774:	49 2f       	mov	r20, r25
    4776:	46 2b       	or	r20, r22
    4778:	58 2f       	mov	r21, r24
    477a:	5d 29       	or	r21, r13
    477c:	b7 01       	movw	r22, r14
    477e:	ca 01       	movw	r24, r20
    4780:	1f 91       	pop	r17
    4782:	0f 91       	pop	r16
    4784:	ff 90       	pop	r15
    4786:	ef 90       	pop	r14
    4788:	df 90       	pop	r13
    478a:	08 95       	ret

0000478c <__unpack_f>:
    478c:	fc 01       	movw	r30, r24
    478e:	db 01       	movw	r26, r22
    4790:	40 81       	ld	r20, Z
    4792:	51 81       	ldd	r21, Z+1	; 0x01
    4794:	22 81       	ldd	r18, Z+2	; 0x02
    4796:	62 2f       	mov	r22, r18
    4798:	6f 77       	andi	r22, 0x7F	; 127
    479a:	70 e0       	ldi	r23, 0x00	; 0
    479c:	22 1f       	adc	r18, r18
    479e:	22 27       	eor	r18, r18
    47a0:	22 1f       	adc	r18, r18
    47a2:	93 81       	ldd	r25, Z+3	; 0x03
    47a4:	89 2f       	mov	r24, r25
    47a6:	88 0f       	add	r24, r24
    47a8:	82 2b       	or	r24, r18
    47aa:	28 2f       	mov	r18, r24
    47ac:	30 e0       	ldi	r19, 0x00	; 0
    47ae:	99 1f       	adc	r25, r25
    47b0:	99 27       	eor	r25, r25
    47b2:	99 1f       	adc	r25, r25
    47b4:	11 96       	adiw	r26, 0x01	; 1
    47b6:	9c 93       	st	X, r25
    47b8:	11 97       	sbiw	r26, 0x01	; 1
    47ba:	21 15       	cp	r18, r1
    47bc:	31 05       	cpc	r19, r1
    47be:	a9 f5       	brne	.+106    	; 0x482a <__unpack_f+0x9e>
    47c0:	41 15       	cp	r20, r1
    47c2:	51 05       	cpc	r21, r1
    47c4:	61 05       	cpc	r22, r1
    47c6:	71 05       	cpc	r23, r1
    47c8:	11 f4       	brne	.+4      	; 0x47ce <__unpack_f+0x42>
    47ca:	82 e0       	ldi	r24, 0x02	; 2
    47cc:	37 c0       	rjmp	.+110    	; 0x483c <__unpack_f+0xb0>
    47ce:	82 e8       	ldi	r24, 0x82	; 130
    47d0:	9f ef       	ldi	r25, 0xFF	; 255
    47d2:	13 96       	adiw	r26, 0x03	; 3
    47d4:	9c 93       	st	X, r25
    47d6:	8e 93       	st	-X, r24
    47d8:	12 97       	sbiw	r26, 0x02	; 2
    47da:	9a 01       	movw	r18, r20
    47dc:	ab 01       	movw	r20, r22
    47de:	67 e0       	ldi	r22, 0x07	; 7
    47e0:	22 0f       	add	r18, r18
    47e2:	33 1f       	adc	r19, r19
    47e4:	44 1f       	adc	r20, r20
    47e6:	55 1f       	adc	r21, r21
    47e8:	6a 95       	dec	r22
    47ea:	d1 f7       	brne	.-12     	; 0x47e0 <__unpack_f+0x54>
    47ec:	83 e0       	ldi	r24, 0x03	; 3
    47ee:	8c 93       	st	X, r24
    47f0:	0d c0       	rjmp	.+26     	; 0x480c <__unpack_f+0x80>
    47f2:	22 0f       	add	r18, r18
    47f4:	33 1f       	adc	r19, r19
    47f6:	44 1f       	adc	r20, r20
    47f8:	55 1f       	adc	r21, r21
    47fa:	12 96       	adiw	r26, 0x02	; 2
    47fc:	8d 91       	ld	r24, X+
    47fe:	9c 91       	ld	r25, X
    4800:	13 97       	sbiw	r26, 0x03	; 3
    4802:	01 97       	sbiw	r24, 0x01	; 1
    4804:	13 96       	adiw	r26, 0x03	; 3
    4806:	9c 93       	st	X, r25
    4808:	8e 93       	st	-X, r24
    480a:	12 97       	sbiw	r26, 0x02	; 2
    480c:	20 30       	cpi	r18, 0x00	; 0
    480e:	80 e0       	ldi	r24, 0x00	; 0
    4810:	38 07       	cpc	r19, r24
    4812:	80 e0       	ldi	r24, 0x00	; 0
    4814:	48 07       	cpc	r20, r24
    4816:	80 e4       	ldi	r24, 0x40	; 64
    4818:	58 07       	cpc	r21, r24
    481a:	58 f3       	brcs	.-42     	; 0x47f2 <__unpack_f+0x66>
    481c:	14 96       	adiw	r26, 0x04	; 4
    481e:	2d 93       	st	X+, r18
    4820:	3d 93       	st	X+, r19
    4822:	4d 93       	st	X+, r20
    4824:	5c 93       	st	X, r21
    4826:	17 97       	sbiw	r26, 0x07	; 7
    4828:	08 95       	ret
    482a:	2f 3f       	cpi	r18, 0xFF	; 255
    482c:	31 05       	cpc	r19, r1
    482e:	79 f4       	brne	.+30     	; 0x484e <__unpack_f+0xc2>
    4830:	41 15       	cp	r20, r1
    4832:	51 05       	cpc	r21, r1
    4834:	61 05       	cpc	r22, r1
    4836:	71 05       	cpc	r23, r1
    4838:	19 f4       	brne	.+6      	; 0x4840 <__unpack_f+0xb4>
    483a:	84 e0       	ldi	r24, 0x04	; 4
    483c:	8c 93       	st	X, r24
    483e:	08 95       	ret
    4840:	64 ff       	sbrs	r22, 4
    4842:	03 c0       	rjmp	.+6      	; 0x484a <__unpack_f+0xbe>
    4844:	81 e0       	ldi	r24, 0x01	; 1
    4846:	8c 93       	st	X, r24
    4848:	12 c0       	rjmp	.+36     	; 0x486e <__unpack_f+0xe2>
    484a:	1c 92       	st	X, r1
    484c:	10 c0       	rjmp	.+32     	; 0x486e <__unpack_f+0xe2>
    484e:	2f 57       	subi	r18, 0x7F	; 127
    4850:	30 40       	sbci	r19, 0x00	; 0
    4852:	13 96       	adiw	r26, 0x03	; 3
    4854:	3c 93       	st	X, r19
    4856:	2e 93       	st	-X, r18
    4858:	12 97       	sbiw	r26, 0x02	; 2
    485a:	83 e0       	ldi	r24, 0x03	; 3
    485c:	8c 93       	st	X, r24
    485e:	87 e0       	ldi	r24, 0x07	; 7
    4860:	44 0f       	add	r20, r20
    4862:	55 1f       	adc	r21, r21
    4864:	66 1f       	adc	r22, r22
    4866:	77 1f       	adc	r23, r23
    4868:	8a 95       	dec	r24
    486a:	d1 f7       	brne	.-12     	; 0x4860 <__unpack_f+0xd4>
    486c:	70 64       	ori	r23, 0x40	; 64
    486e:	14 96       	adiw	r26, 0x04	; 4
    4870:	4d 93       	st	X+, r20
    4872:	5d 93       	st	X+, r21
    4874:	6d 93       	st	X+, r22
    4876:	7c 93       	st	X, r23
    4878:	17 97       	sbiw	r26, 0x07	; 7
    487a:	08 95       	ret

0000487c <__fpcmp_parts_f>:
    487c:	1f 93       	push	r17
    487e:	dc 01       	movw	r26, r24
    4880:	fb 01       	movw	r30, r22
    4882:	9c 91       	ld	r25, X
    4884:	92 30       	cpi	r25, 0x02	; 2
    4886:	08 f4       	brcc	.+2      	; 0x488a <__fpcmp_parts_f+0xe>
    4888:	47 c0       	rjmp	.+142    	; 0x4918 <__fpcmp_parts_f+0x9c>
    488a:	80 81       	ld	r24, Z
    488c:	82 30       	cpi	r24, 0x02	; 2
    488e:	08 f4       	brcc	.+2      	; 0x4892 <__fpcmp_parts_f+0x16>
    4890:	43 c0       	rjmp	.+134    	; 0x4918 <__fpcmp_parts_f+0x9c>
    4892:	94 30       	cpi	r25, 0x04	; 4
    4894:	51 f4       	brne	.+20     	; 0x48aa <__fpcmp_parts_f+0x2e>
    4896:	11 96       	adiw	r26, 0x01	; 1
    4898:	1c 91       	ld	r17, X
    489a:	84 30       	cpi	r24, 0x04	; 4
    489c:	99 f5       	brne	.+102    	; 0x4904 <__fpcmp_parts_f+0x88>
    489e:	81 81       	ldd	r24, Z+1	; 0x01
    48a0:	68 2f       	mov	r22, r24
    48a2:	70 e0       	ldi	r23, 0x00	; 0
    48a4:	61 1b       	sub	r22, r17
    48a6:	71 09       	sbc	r23, r1
    48a8:	3f c0       	rjmp	.+126    	; 0x4928 <__fpcmp_parts_f+0xac>
    48aa:	84 30       	cpi	r24, 0x04	; 4
    48ac:	21 f0       	breq	.+8      	; 0x48b6 <__fpcmp_parts_f+0x3a>
    48ae:	92 30       	cpi	r25, 0x02	; 2
    48b0:	31 f4       	brne	.+12     	; 0x48be <__fpcmp_parts_f+0x42>
    48b2:	82 30       	cpi	r24, 0x02	; 2
    48b4:	b9 f1       	breq	.+110    	; 0x4924 <__fpcmp_parts_f+0xa8>
    48b6:	81 81       	ldd	r24, Z+1	; 0x01
    48b8:	88 23       	and	r24, r24
    48ba:	89 f1       	breq	.+98     	; 0x491e <__fpcmp_parts_f+0xa2>
    48bc:	2d c0       	rjmp	.+90     	; 0x4918 <__fpcmp_parts_f+0x9c>
    48be:	11 96       	adiw	r26, 0x01	; 1
    48c0:	1c 91       	ld	r17, X
    48c2:	11 97       	sbiw	r26, 0x01	; 1
    48c4:	82 30       	cpi	r24, 0x02	; 2
    48c6:	f1 f0       	breq	.+60     	; 0x4904 <__fpcmp_parts_f+0x88>
    48c8:	81 81       	ldd	r24, Z+1	; 0x01
    48ca:	18 17       	cp	r17, r24
    48cc:	d9 f4       	brne	.+54     	; 0x4904 <__fpcmp_parts_f+0x88>
    48ce:	12 96       	adiw	r26, 0x02	; 2
    48d0:	2d 91       	ld	r18, X+
    48d2:	3c 91       	ld	r19, X
    48d4:	13 97       	sbiw	r26, 0x03	; 3
    48d6:	82 81       	ldd	r24, Z+2	; 0x02
    48d8:	93 81       	ldd	r25, Z+3	; 0x03
    48da:	82 17       	cp	r24, r18
    48dc:	93 07       	cpc	r25, r19
    48de:	94 f0       	brlt	.+36     	; 0x4904 <__fpcmp_parts_f+0x88>
    48e0:	28 17       	cp	r18, r24
    48e2:	39 07       	cpc	r19, r25
    48e4:	bc f0       	brlt	.+46     	; 0x4914 <__fpcmp_parts_f+0x98>
    48e6:	14 96       	adiw	r26, 0x04	; 4
    48e8:	8d 91       	ld	r24, X+
    48ea:	9d 91       	ld	r25, X+
    48ec:	0d 90       	ld	r0, X+
    48ee:	bc 91       	ld	r27, X
    48f0:	a0 2d       	mov	r26, r0
    48f2:	24 81       	ldd	r18, Z+4	; 0x04
    48f4:	35 81       	ldd	r19, Z+5	; 0x05
    48f6:	46 81       	ldd	r20, Z+6	; 0x06
    48f8:	57 81       	ldd	r21, Z+7	; 0x07
    48fa:	28 17       	cp	r18, r24
    48fc:	39 07       	cpc	r19, r25
    48fe:	4a 07       	cpc	r20, r26
    4900:	5b 07       	cpc	r21, r27
    4902:	18 f4       	brcc	.+6      	; 0x490a <__fpcmp_parts_f+0x8e>
    4904:	11 23       	and	r17, r17
    4906:	41 f0       	breq	.+16     	; 0x4918 <__fpcmp_parts_f+0x9c>
    4908:	0a c0       	rjmp	.+20     	; 0x491e <__fpcmp_parts_f+0xa2>
    490a:	82 17       	cp	r24, r18
    490c:	93 07       	cpc	r25, r19
    490e:	a4 07       	cpc	r26, r20
    4910:	b5 07       	cpc	r27, r21
    4912:	40 f4       	brcc	.+16     	; 0x4924 <__fpcmp_parts_f+0xa8>
    4914:	11 23       	and	r17, r17
    4916:	19 f0       	breq	.+6      	; 0x491e <__fpcmp_parts_f+0xa2>
    4918:	61 e0       	ldi	r22, 0x01	; 1
    491a:	70 e0       	ldi	r23, 0x00	; 0
    491c:	05 c0       	rjmp	.+10     	; 0x4928 <__fpcmp_parts_f+0xac>
    491e:	6f ef       	ldi	r22, 0xFF	; 255
    4920:	7f ef       	ldi	r23, 0xFF	; 255
    4922:	02 c0       	rjmp	.+4      	; 0x4928 <__fpcmp_parts_f+0xac>
    4924:	60 e0       	ldi	r22, 0x00	; 0
    4926:	70 e0       	ldi	r23, 0x00	; 0
    4928:	cb 01       	movw	r24, r22
    492a:	1f 91       	pop	r17
    492c:	08 95       	ret

0000492e <__mulsi3>:
    492e:	62 9f       	mul	r22, r18
    4930:	d0 01       	movw	r26, r0
    4932:	73 9f       	mul	r23, r19
    4934:	f0 01       	movw	r30, r0
    4936:	82 9f       	mul	r24, r18
    4938:	e0 0d       	add	r30, r0
    493a:	f1 1d       	adc	r31, r1
    493c:	64 9f       	mul	r22, r20
    493e:	e0 0d       	add	r30, r0
    4940:	f1 1d       	adc	r31, r1
    4942:	92 9f       	mul	r25, r18
    4944:	f0 0d       	add	r31, r0
    4946:	83 9f       	mul	r24, r19
    4948:	f0 0d       	add	r31, r0
    494a:	74 9f       	mul	r23, r20
    494c:	f0 0d       	add	r31, r0
    494e:	65 9f       	mul	r22, r21
    4950:	f0 0d       	add	r31, r0
    4952:	99 27       	eor	r25, r25
    4954:	72 9f       	mul	r23, r18
    4956:	b0 0d       	add	r27, r0
    4958:	e1 1d       	adc	r30, r1
    495a:	f9 1f       	adc	r31, r25
    495c:	63 9f       	mul	r22, r19
    495e:	b0 0d       	add	r27, r0
    4960:	e1 1d       	adc	r30, r1
    4962:	f9 1f       	adc	r31, r25
    4964:	bd 01       	movw	r22, r26
    4966:	cf 01       	movw	r24, r30
    4968:	11 24       	eor	r1, r1
    496a:	08 95       	ret

0000496c <__udivmodhi4>:
    496c:	aa 1b       	sub	r26, r26
    496e:	bb 1b       	sub	r27, r27
    4970:	51 e1       	ldi	r21, 0x11	; 17
    4972:	07 c0       	rjmp	.+14     	; 0x4982 <__udivmodhi4_ep>

00004974 <__udivmodhi4_loop>:
    4974:	aa 1f       	adc	r26, r26
    4976:	bb 1f       	adc	r27, r27
    4978:	a6 17       	cp	r26, r22
    497a:	b7 07       	cpc	r27, r23
    497c:	10 f0       	brcs	.+4      	; 0x4982 <__udivmodhi4_ep>
    497e:	a6 1b       	sub	r26, r22
    4980:	b7 0b       	sbc	r27, r23

00004982 <__udivmodhi4_ep>:
    4982:	88 1f       	adc	r24, r24
    4984:	99 1f       	adc	r25, r25
    4986:	5a 95       	dec	r21
    4988:	a9 f7       	brne	.-22     	; 0x4974 <__udivmodhi4_loop>
    498a:	80 95       	com	r24
    498c:	90 95       	com	r25
    498e:	bc 01       	movw	r22, r24
    4990:	cd 01       	movw	r24, r26
    4992:	08 95       	ret

00004994 <__divmodhi4>:
    4994:	97 fb       	bst	r25, 7
    4996:	09 2e       	mov	r0, r25
    4998:	07 26       	eor	r0, r23
    499a:	0a d0       	rcall	.+20     	; 0x49b0 <__divmodhi4_neg1>
    499c:	77 fd       	sbrc	r23, 7
    499e:	04 d0       	rcall	.+8      	; 0x49a8 <__divmodhi4_neg2>
    49a0:	e5 df       	rcall	.-54     	; 0x496c <__udivmodhi4>
    49a2:	06 d0       	rcall	.+12     	; 0x49b0 <__divmodhi4_neg1>
    49a4:	00 20       	and	r0, r0
    49a6:	1a f4       	brpl	.+6      	; 0x49ae <__divmodhi4_exit>

000049a8 <__divmodhi4_neg2>:
    49a8:	70 95       	com	r23
    49aa:	61 95       	neg	r22
    49ac:	7f 4f       	sbci	r23, 0xFF	; 255

000049ae <__divmodhi4_exit>:
    49ae:	08 95       	ret

000049b0 <__divmodhi4_neg1>:
    49b0:	f6 f7       	brtc	.-4      	; 0x49ae <__divmodhi4_exit>
    49b2:	90 95       	com	r25
    49b4:	81 95       	neg	r24
    49b6:	9f 4f       	sbci	r25, 0xFF	; 255
    49b8:	08 95       	ret

000049ba <__udivmodsi4>:
    49ba:	a1 e2       	ldi	r26, 0x21	; 33
    49bc:	1a 2e       	mov	r1, r26
    49be:	aa 1b       	sub	r26, r26
    49c0:	bb 1b       	sub	r27, r27
    49c2:	fd 01       	movw	r30, r26
    49c4:	0d c0       	rjmp	.+26     	; 0x49e0 <__udivmodsi4_ep>

000049c6 <__udivmodsi4_loop>:
    49c6:	aa 1f       	adc	r26, r26
    49c8:	bb 1f       	adc	r27, r27
    49ca:	ee 1f       	adc	r30, r30
    49cc:	ff 1f       	adc	r31, r31
    49ce:	a2 17       	cp	r26, r18
    49d0:	b3 07       	cpc	r27, r19
    49d2:	e4 07       	cpc	r30, r20
    49d4:	f5 07       	cpc	r31, r21
    49d6:	20 f0       	brcs	.+8      	; 0x49e0 <__udivmodsi4_ep>
    49d8:	a2 1b       	sub	r26, r18
    49da:	b3 0b       	sbc	r27, r19
    49dc:	e4 0b       	sbc	r30, r20
    49de:	f5 0b       	sbc	r31, r21

000049e0 <__udivmodsi4_ep>:
    49e0:	66 1f       	adc	r22, r22
    49e2:	77 1f       	adc	r23, r23
    49e4:	88 1f       	adc	r24, r24
    49e6:	99 1f       	adc	r25, r25
    49e8:	1a 94       	dec	r1
    49ea:	69 f7       	brne	.-38     	; 0x49c6 <__udivmodsi4_loop>
    49ec:	60 95       	com	r22
    49ee:	70 95       	com	r23
    49f0:	80 95       	com	r24
    49f2:	90 95       	com	r25
    49f4:	9b 01       	movw	r18, r22
    49f6:	ac 01       	movw	r20, r24
    49f8:	bd 01       	movw	r22, r26
    49fa:	cf 01       	movw	r24, r30
    49fc:	08 95       	ret

000049fe <__prologue_saves__>:
    49fe:	2f 92       	push	r2
    4a00:	3f 92       	push	r3
    4a02:	4f 92       	push	r4
    4a04:	5f 92       	push	r5
    4a06:	6f 92       	push	r6
    4a08:	7f 92       	push	r7
    4a0a:	8f 92       	push	r8
    4a0c:	9f 92       	push	r9
    4a0e:	af 92       	push	r10
    4a10:	bf 92       	push	r11
    4a12:	cf 92       	push	r12
    4a14:	df 92       	push	r13
    4a16:	ef 92       	push	r14
    4a18:	ff 92       	push	r15
    4a1a:	0f 93       	push	r16
    4a1c:	1f 93       	push	r17
    4a1e:	cf 93       	push	r28
    4a20:	df 93       	push	r29
    4a22:	cd b7       	in	r28, 0x3d	; 61
    4a24:	de b7       	in	r29, 0x3e	; 62
    4a26:	ca 1b       	sub	r28, r26
    4a28:	db 0b       	sbc	r29, r27
    4a2a:	0f b6       	in	r0, 0x3f	; 63
    4a2c:	f8 94       	cli
    4a2e:	de bf       	out	0x3e, r29	; 62
    4a30:	0f be       	out	0x3f, r0	; 63
    4a32:	cd bf       	out	0x3d, r28	; 61
    4a34:	09 94       	ijmp

00004a36 <__epilogue_restores__>:
    4a36:	2a 88       	ldd	r2, Y+18	; 0x12
    4a38:	39 88       	ldd	r3, Y+17	; 0x11
    4a3a:	48 88       	ldd	r4, Y+16	; 0x10
    4a3c:	5f 84       	ldd	r5, Y+15	; 0x0f
    4a3e:	6e 84       	ldd	r6, Y+14	; 0x0e
    4a40:	7d 84       	ldd	r7, Y+13	; 0x0d
    4a42:	8c 84       	ldd	r8, Y+12	; 0x0c
    4a44:	9b 84       	ldd	r9, Y+11	; 0x0b
    4a46:	aa 84       	ldd	r10, Y+10	; 0x0a
    4a48:	b9 84       	ldd	r11, Y+9	; 0x09
    4a4a:	c8 84       	ldd	r12, Y+8	; 0x08
    4a4c:	df 80       	ldd	r13, Y+7	; 0x07
    4a4e:	ee 80       	ldd	r14, Y+6	; 0x06
    4a50:	fd 80       	ldd	r15, Y+5	; 0x05
    4a52:	0c 81       	ldd	r16, Y+4	; 0x04
    4a54:	1b 81       	ldd	r17, Y+3	; 0x03
    4a56:	aa 81       	ldd	r26, Y+2	; 0x02
    4a58:	b9 81       	ldd	r27, Y+1	; 0x01
    4a5a:	ce 0f       	add	r28, r30
    4a5c:	d1 1d       	adc	r29, r1
    4a5e:	0f b6       	in	r0, 0x3f	; 63
    4a60:	f8 94       	cli
    4a62:	de bf       	out	0x3e, r29	; 62
    4a64:	0f be       	out	0x3f, r0	; 63
    4a66:	cd bf       	out	0x3d, r28	; 61
    4a68:	ed 01       	movw	r28, r26
    4a6a:	08 95       	ret

00004a6c <memcpy>:
    4a6c:	fb 01       	movw	r30, r22
    4a6e:	dc 01       	movw	r26, r24
    4a70:	02 c0       	rjmp	.+4      	; 0x4a76 <memcpy+0xa>
    4a72:	01 90       	ld	r0, Z+
    4a74:	0d 92       	st	X+, r0
    4a76:	41 50       	subi	r20, 0x01	; 1
    4a78:	50 40       	sbci	r21, 0x00	; 0
    4a7a:	d8 f7       	brcc	.-10     	; 0x4a72 <memcpy+0x6>
    4a7c:	08 95       	ret

00004a7e <memset>:
    4a7e:	dc 01       	movw	r26, r24
    4a80:	01 c0       	rjmp	.+2      	; 0x4a84 <memset+0x6>
    4a82:	6d 93       	st	X+, r22
    4a84:	41 50       	subi	r20, 0x01	; 1
    4a86:	50 40       	sbci	r21, 0x00	; 0
    4a88:	e0 f7       	brcc	.-8      	; 0x4a82 <memset+0x4>
    4a8a:	08 95       	ret

00004a8c <strchr>:
    4a8c:	fc 01       	movw	r30, r24
    4a8e:	81 91       	ld	r24, Z+
    4a90:	86 17       	cp	r24, r22
    4a92:	21 f0       	breq	.+8      	; 0x4a9c <strchr+0x10>
    4a94:	88 23       	and	r24, r24
    4a96:	d9 f7       	brne	.-10     	; 0x4a8e <strchr+0x2>
    4a98:	99 27       	eor	r25, r25
    4a9a:	08 95       	ret
    4a9c:	31 97       	sbiw	r30, 0x01	; 1
    4a9e:	cf 01       	movw	r24, r30
    4aa0:	08 95       	ret

00004aa2 <strcmp>:
    4aa2:	fb 01       	movw	r30, r22
    4aa4:	dc 01       	movw	r26, r24
    4aa6:	8d 91       	ld	r24, X+
    4aa8:	01 90       	ld	r0, Z+
    4aaa:	80 19       	sub	r24, r0
    4aac:	01 10       	cpse	r0, r1
    4aae:	d9 f3       	breq	.-10     	; 0x4aa6 <strcmp+0x4>
    4ab0:	99 0b       	sbc	r25, r25
    4ab2:	08 95       	ret

00004ab4 <strncmp>:
    4ab4:	fb 01       	movw	r30, r22
    4ab6:	dc 01       	movw	r26, r24
    4ab8:	41 50       	subi	r20, 0x01	; 1
    4aba:	50 40       	sbci	r21, 0x00	; 0
    4abc:	30 f0       	brcs	.+12     	; 0x4aca <strncmp+0x16>
    4abe:	8d 91       	ld	r24, X+
    4ac0:	01 90       	ld	r0, Z+
    4ac2:	80 19       	sub	r24, r0
    4ac4:	19 f4       	brne	.+6      	; 0x4acc <strncmp+0x18>
    4ac6:	00 20       	and	r0, r0
    4ac8:	b9 f7       	brne	.-18     	; 0x4ab8 <strncmp+0x4>
    4aca:	88 1b       	sub	r24, r24
    4acc:	99 0b       	sbc	r25, r25
    4ace:	08 95       	ret

00004ad0 <strncpy>:
    4ad0:	fb 01       	movw	r30, r22
    4ad2:	dc 01       	movw	r26, r24
    4ad4:	41 50       	subi	r20, 0x01	; 1
    4ad6:	50 40       	sbci	r21, 0x00	; 0
    4ad8:	48 f0       	brcs	.+18     	; 0x4aec <strncpy+0x1c>
    4ada:	01 90       	ld	r0, Z+
    4adc:	0d 92       	st	X+, r0
    4ade:	00 20       	and	r0, r0
    4ae0:	c9 f7       	brne	.-14     	; 0x4ad4 <strncpy+0x4>
    4ae2:	01 c0       	rjmp	.+2      	; 0x4ae6 <strncpy+0x16>
    4ae4:	1d 92       	st	X+, r1
    4ae6:	41 50       	subi	r20, 0x01	; 1
    4ae8:	50 40       	sbci	r21, 0x00	; 0
    4aea:	e0 f7       	brcc	.-8      	; 0x4ae4 <strncpy+0x14>
    4aec:	08 95       	ret

00004aee <strrchr>:
    4aee:	fc 01       	movw	r30, r24
    4af0:	81 e0       	ldi	r24, 0x01	; 1
    4af2:	90 e0       	ldi	r25, 0x00	; 0
    4af4:	01 90       	ld	r0, Z+
    4af6:	06 16       	cp	r0, r22
    4af8:	09 f4       	brne	.+2      	; 0x4afc <strrchr+0xe>
    4afa:	cf 01       	movw	r24, r30
    4afc:	00 20       	and	r0, r0
    4afe:	d1 f7       	brne	.-12     	; 0x4af4 <strrchr+0x6>
    4b00:	01 97       	sbiw	r24, 0x01	; 1
    4b02:	08 95       	ret

00004b04 <sprintf>:
    4b04:	ae e0       	ldi	r26, 0x0E	; 14
    4b06:	b0 e0       	ldi	r27, 0x00	; 0
    4b08:	e8 e8       	ldi	r30, 0x88	; 136
    4b0a:	f5 e2       	ldi	r31, 0x25	; 37
    4b0c:	0c 94 0d 25 	jmp	0x4a1a	; 0x4a1a <__prologue_saves__+0x1c>
    4b10:	0d 89       	ldd	r16, Y+21	; 0x15
    4b12:	1e 89       	ldd	r17, Y+22	; 0x16
    4b14:	86 e0       	ldi	r24, 0x06	; 6
    4b16:	8c 83       	std	Y+4, r24	; 0x04
    4b18:	1a 83       	std	Y+2, r17	; 0x02
    4b1a:	09 83       	std	Y+1, r16	; 0x01
    4b1c:	8f ef       	ldi	r24, 0xFF	; 255
    4b1e:	9f e7       	ldi	r25, 0x7F	; 127
    4b20:	9e 83       	std	Y+6, r25	; 0x06
    4b22:	8d 83       	std	Y+5, r24	; 0x05
    4b24:	9e 01       	movw	r18, r28
    4b26:	27 5e       	subi	r18, 0xE7	; 231
    4b28:	3f 4f       	sbci	r19, 0xFF	; 255
    4b2a:	ce 01       	movw	r24, r28
    4b2c:	01 96       	adiw	r24, 0x01	; 1
    4b2e:	6f 89       	ldd	r22, Y+23	; 0x17
    4b30:	78 8d       	ldd	r23, Y+24	; 0x18
    4b32:	a9 01       	movw	r20, r18
    4b34:	0e 94 e8 25 	call	0x4bd0	; 0x4bd0 <vfprintf>
    4b38:	2f 81       	ldd	r18, Y+7	; 0x07
    4b3a:	38 85       	ldd	r19, Y+8	; 0x08
    4b3c:	02 0f       	add	r16, r18
    4b3e:	13 1f       	adc	r17, r19
    4b40:	f8 01       	movw	r30, r16
    4b42:	10 82       	st	Z, r1
    4b44:	2e 96       	adiw	r28, 0x0e	; 14
    4b46:	e4 e0       	ldi	r30, 0x04	; 4
    4b48:	0c 94 29 25 	jmp	0x4a52	; 0x4a52 <__epilogue_restores__+0x1c>
    4b4c:	11 f4       	brne	.+4      	; 0x4b52 <sprintf+0x4e>
    4b4e:	0e f4       	brtc	.+2      	; 0x4b52 <sprintf+0x4e>
    4b50:	d5 c2       	rjmp	.+1450   	; 0x50fc <__fp_nan>
    4b52:	c6 c2       	rjmp	.+1420   	; 0x50e0 <__fp_mpack>

00004b54 <sqrt>:
    4b54:	e5 d2       	rcall	.+1482   	; 0x5120 <__fp_splitA>
    4b56:	d0 f3       	brcs	.-12     	; 0x4b4c <sprintf+0x48>
    4b58:	99 23       	and	r25, r25
    4b5a:	d9 f3       	breq	.-10     	; 0x4b52 <sprintf+0x4e>
    4b5c:	ce f3       	brts	.-14     	; 0x4b50 <sprintf+0x4c>
    4b5e:	9f 57       	subi	r25, 0x7F	; 127
    4b60:	55 0b       	sbc	r21, r21
    4b62:	87 ff       	sbrs	r24, 7
    4b64:	ce d2       	rcall	.+1436   	; 0x5102 <__fp_norm2>
    4b66:	00 24       	eor	r0, r0
    4b68:	a0 e6       	ldi	r26, 0x60	; 96
    4b6a:	40 ea       	ldi	r20, 0xA0	; 160
    4b6c:	90 01       	movw	r18, r0
    4b6e:	80 58       	subi	r24, 0x80	; 128
    4b70:	56 95       	lsr	r21
    4b72:	97 95       	ror	r25
    4b74:	28 f4       	brcc	.+10     	; 0x4b80 <sqrt+0x2c>
    4b76:	80 5c       	subi	r24, 0xC0	; 192
    4b78:	66 0f       	add	r22, r22
    4b7a:	77 1f       	adc	r23, r23
    4b7c:	88 1f       	adc	r24, r24
    4b7e:	20 f0       	brcs	.+8      	; 0x4b88 <sqrt+0x34>
    4b80:	26 17       	cp	r18, r22
    4b82:	37 07       	cpc	r19, r23
    4b84:	48 07       	cpc	r20, r24
    4b86:	30 f4       	brcc	.+12     	; 0x4b94 <sqrt+0x40>
    4b88:	62 1b       	sub	r22, r18
    4b8a:	73 0b       	sbc	r23, r19
    4b8c:	84 0b       	sbc	r24, r20
    4b8e:	20 29       	or	r18, r0
    4b90:	31 29       	or	r19, r1
    4b92:	4a 2b       	or	r20, r26
    4b94:	a6 95       	lsr	r26
    4b96:	17 94       	ror	r1
    4b98:	07 94       	ror	r0
    4b9a:	20 25       	eor	r18, r0
    4b9c:	31 25       	eor	r19, r1
    4b9e:	4a 27       	eor	r20, r26
    4ba0:	58 f7       	brcc	.-42     	; 0x4b78 <sqrt+0x24>
    4ba2:	66 0f       	add	r22, r22
    4ba4:	77 1f       	adc	r23, r23
    4ba6:	88 1f       	adc	r24, r24
    4ba8:	20 f0       	brcs	.+8      	; 0x4bb2 <sqrt+0x5e>
    4baa:	26 17       	cp	r18, r22
    4bac:	37 07       	cpc	r19, r23
    4bae:	48 07       	cpc	r20, r24
    4bb0:	30 f4       	brcc	.+12     	; 0x4bbe <sqrt+0x6a>
    4bb2:	62 0b       	sbc	r22, r18
    4bb4:	73 0b       	sbc	r23, r19
    4bb6:	84 0b       	sbc	r24, r20
    4bb8:	20 0d       	add	r18, r0
    4bba:	31 1d       	adc	r19, r1
    4bbc:	41 1d       	adc	r20, r1
    4bbe:	a0 95       	com	r26
    4bc0:	81 f7       	brne	.-32     	; 0x4ba2 <sqrt+0x4e>
    4bc2:	b9 01       	movw	r22, r18
    4bc4:	84 2f       	mov	r24, r20
    4bc6:	91 58       	subi	r25, 0x81	; 129
    4bc8:	88 0f       	add	r24, r24
    4bca:	96 95       	lsr	r25
    4bcc:	87 95       	ror	r24
    4bce:	08 95       	ret

00004bd0 <vfprintf>:
    4bd0:	ab e0       	ldi	r26, 0x0B	; 11
    4bd2:	b0 e0       	ldi	r27, 0x00	; 0
    4bd4:	ee ee       	ldi	r30, 0xEE	; 238
    4bd6:	f5 e2       	ldi	r31, 0x25	; 37
    4bd8:	0c 94 ff 24 	jmp	0x49fe	; 0x49fe <__prologue_saves__>
    4bdc:	3c 01       	movw	r6, r24
    4bde:	2b 01       	movw	r4, r22
    4be0:	5a 01       	movw	r10, r20
    4be2:	fc 01       	movw	r30, r24
    4be4:	17 82       	std	Z+7, r1	; 0x07
    4be6:	16 82       	std	Z+6, r1	; 0x06
    4be8:	83 81       	ldd	r24, Z+3	; 0x03
    4bea:	81 fd       	sbrc	r24, 1
    4bec:	03 c0       	rjmp	.+6      	; 0x4bf4 <vfprintf+0x24>
    4bee:	6f ef       	ldi	r22, 0xFF	; 255
    4bf0:	7f ef       	ldi	r23, 0xFF	; 255
    4bf2:	c6 c1       	rjmp	.+908    	; 0x4f80 <vfprintf+0x3b0>
    4bf4:	9a e0       	ldi	r25, 0x0A	; 10
    4bf6:	89 2e       	mov	r8, r25
    4bf8:	1e 01       	movw	r2, r28
    4bfa:	08 94       	sec
    4bfc:	21 1c       	adc	r2, r1
    4bfe:	31 1c       	adc	r3, r1
    4c00:	f3 01       	movw	r30, r6
    4c02:	23 81       	ldd	r18, Z+3	; 0x03
    4c04:	f2 01       	movw	r30, r4
    4c06:	23 fd       	sbrc	r18, 3
    4c08:	85 91       	lpm	r24, Z+
    4c0a:	23 ff       	sbrs	r18, 3
    4c0c:	81 91       	ld	r24, Z+
    4c0e:	2f 01       	movw	r4, r30
    4c10:	88 23       	and	r24, r24
    4c12:	09 f4       	brne	.+2      	; 0x4c16 <vfprintf+0x46>
    4c14:	b2 c1       	rjmp	.+868    	; 0x4f7a <vfprintf+0x3aa>
    4c16:	85 32       	cpi	r24, 0x25	; 37
    4c18:	39 f4       	brne	.+14     	; 0x4c28 <vfprintf+0x58>
    4c1a:	23 fd       	sbrc	r18, 3
    4c1c:	85 91       	lpm	r24, Z+
    4c1e:	23 ff       	sbrs	r18, 3
    4c20:	81 91       	ld	r24, Z+
    4c22:	2f 01       	movw	r4, r30
    4c24:	85 32       	cpi	r24, 0x25	; 37
    4c26:	29 f4       	brne	.+10     	; 0x4c32 <vfprintf+0x62>
    4c28:	90 e0       	ldi	r25, 0x00	; 0
    4c2a:	b3 01       	movw	r22, r6
    4c2c:	0e 94 e6 27 	call	0x4fcc	; 0x4fcc <fputc>
    4c30:	e7 cf       	rjmp	.-50     	; 0x4c00 <vfprintf+0x30>
    4c32:	98 2f       	mov	r25, r24
    4c34:	ff 24       	eor	r15, r15
    4c36:	ee 24       	eor	r14, r14
    4c38:	99 24       	eor	r9, r9
    4c3a:	ff e1       	ldi	r31, 0x1F	; 31
    4c3c:	ff 15       	cp	r31, r15
    4c3e:	d0 f0       	brcs	.+52     	; 0x4c74 <vfprintf+0xa4>
    4c40:	9b 32       	cpi	r25, 0x2B	; 43
    4c42:	69 f0       	breq	.+26     	; 0x4c5e <vfprintf+0x8e>
    4c44:	9c 32       	cpi	r25, 0x2C	; 44
    4c46:	28 f4       	brcc	.+10     	; 0x4c52 <vfprintf+0x82>
    4c48:	90 32       	cpi	r25, 0x20	; 32
    4c4a:	59 f0       	breq	.+22     	; 0x4c62 <vfprintf+0x92>
    4c4c:	93 32       	cpi	r25, 0x23	; 35
    4c4e:	91 f4       	brne	.+36     	; 0x4c74 <vfprintf+0xa4>
    4c50:	0e c0       	rjmp	.+28     	; 0x4c6e <vfprintf+0x9e>
    4c52:	9d 32       	cpi	r25, 0x2D	; 45
    4c54:	49 f0       	breq	.+18     	; 0x4c68 <vfprintf+0x98>
    4c56:	90 33       	cpi	r25, 0x30	; 48
    4c58:	69 f4       	brne	.+26     	; 0x4c74 <vfprintf+0xa4>
    4c5a:	41 e0       	ldi	r20, 0x01	; 1
    4c5c:	24 c0       	rjmp	.+72     	; 0x4ca6 <vfprintf+0xd6>
    4c5e:	52 e0       	ldi	r21, 0x02	; 2
    4c60:	f5 2a       	or	r15, r21
    4c62:	84 e0       	ldi	r24, 0x04	; 4
    4c64:	f8 2a       	or	r15, r24
    4c66:	28 c0       	rjmp	.+80     	; 0x4cb8 <vfprintf+0xe8>
    4c68:	98 e0       	ldi	r25, 0x08	; 8
    4c6a:	f9 2a       	or	r15, r25
    4c6c:	25 c0       	rjmp	.+74     	; 0x4cb8 <vfprintf+0xe8>
    4c6e:	e0 e1       	ldi	r30, 0x10	; 16
    4c70:	fe 2a       	or	r15, r30
    4c72:	22 c0       	rjmp	.+68     	; 0x4cb8 <vfprintf+0xe8>
    4c74:	f7 fc       	sbrc	r15, 7
    4c76:	29 c0       	rjmp	.+82     	; 0x4cca <vfprintf+0xfa>
    4c78:	89 2f       	mov	r24, r25
    4c7a:	80 53       	subi	r24, 0x30	; 48
    4c7c:	8a 30       	cpi	r24, 0x0A	; 10
    4c7e:	70 f4       	brcc	.+28     	; 0x4c9c <vfprintf+0xcc>
    4c80:	f6 fe       	sbrs	r15, 6
    4c82:	05 c0       	rjmp	.+10     	; 0x4c8e <vfprintf+0xbe>
    4c84:	98 9c       	mul	r9, r8
    4c86:	90 2c       	mov	r9, r0
    4c88:	11 24       	eor	r1, r1
    4c8a:	98 0e       	add	r9, r24
    4c8c:	15 c0       	rjmp	.+42     	; 0x4cb8 <vfprintf+0xe8>
    4c8e:	e8 9c       	mul	r14, r8
    4c90:	e0 2c       	mov	r14, r0
    4c92:	11 24       	eor	r1, r1
    4c94:	e8 0e       	add	r14, r24
    4c96:	f0 e2       	ldi	r31, 0x20	; 32
    4c98:	ff 2a       	or	r15, r31
    4c9a:	0e c0       	rjmp	.+28     	; 0x4cb8 <vfprintf+0xe8>
    4c9c:	9e 32       	cpi	r25, 0x2E	; 46
    4c9e:	29 f4       	brne	.+10     	; 0x4caa <vfprintf+0xda>
    4ca0:	f6 fc       	sbrc	r15, 6
    4ca2:	6b c1       	rjmp	.+726    	; 0x4f7a <vfprintf+0x3aa>
    4ca4:	40 e4       	ldi	r20, 0x40	; 64
    4ca6:	f4 2a       	or	r15, r20
    4ca8:	07 c0       	rjmp	.+14     	; 0x4cb8 <vfprintf+0xe8>
    4caa:	9c 36       	cpi	r25, 0x6C	; 108
    4cac:	19 f4       	brne	.+6      	; 0x4cb4 <vfprintf+0xe4>
    4cae:	50 e8       	ldi	r21, 0x80	; 128
    4cb0:	f5 2a       	or	r15, r21
    4cb2:	02 c0       	rjmp	.+4      	; 0x4cb8 <vfprintf+0xe8>
    4cb4:	98 36       	cpi	r25, 0x68	; 104
    4cb6:	49 f4       	brne	.+18     	; 0x4cca <vfprintf+0xfa>
    4cb8:	f2 01       	movw	r30, r4
    4cba:	23 fd       	sbrc	r18, 3
    4cbc:	95 91       	lpm	r25, Z+
    4cbe:	23 ff       	sbrs	r18, 3
    4cc0:	91 91       	ld	r25, Z+
    4cc2:	2f 01       	movw	r4, r30
    4cc4:	99 23       	and	r25, r25
    4cc6:	09 f0       	breq	.+2      	; 0x4cca <vfprintf+0xfa>
    4cc8:	b8 cf       	rjmp	.-144    	; 0x4c3a <vfprintf+0x6a>
    4cca:	89 2f       	mov	r24, r25
    4ccc:	85 54       	subi	r24, 0x45	; 69
    4cce:	83 30       	cpi	r24, 0x03	; 3
    4cd0:	18 f0       	brcs	.+6      	; 0x4cd8 <vfprintf+0x108>
    4cd2:	80 52       	subi	r24, 0x20	; 32
    4cd4:	83 30       	cpi	r24, 0x03	; 3
    4cd6:	38 f4       	brcc	.+14     	; 0x4ce6 <vfprintf+0x116>
    4cd8:	44 e0       	ldi	r20, 0x04	; 4
    4cda:	50 e0       	ldi	r21, 0x00	; 0
    4cdc:	a4 0e       	add	r10, r20
    4cde:	b5 1e       	adc	r11, r21
    4ce0:	5f e3       	ldi	r21, 0x3F	; 63
    4ce2:	59 83       	std	Y+1, r21	; 0x01
    4ce4:	0f c0       	rjmp	.+30     	; 0x4d04 <vfprintf+0x134>
    4ce6:	93 36       	cpi	r25, 0x63	; 99
    4ce8:	31 f0       	breq	.+12     	; 0x4cf6 <vfprintf+0x126>
    4cea:	93 37       	cpi	r25, 0x73	; 115
    4cec:	79 f0       	breq	.+30     	; 0x4d0c <vfprintf+0x13c>
    4cee:	93 35       	cpi	r25, 0x53	; 83
    4cf0:	09 f0       	breq	.+2      	; 0x4cf4 <vfprintf+0x124>
    4cf2:	56 c0       	rjmp	.+172    	; 0x4da0 <vfprintf+0x1d0>
    4cf4:	20 c0       	rjmp	.+64     	; 0x4d36 <vfprintf+0x166>
    4cf6:	f5 01       	movw	r30, r10
    4cf8:	80 81       	ld	r24, Z
    4cfa:	89 83       	std	Y+1, r24	; 0x01
    4cfc:	42 e0       	ldi	r20, 0x02	; 2
    4cfe:	50 e0       	ldi	r21, 0x00	; 0
    4d00:	a4 0e       	add	r10, r20
    4d02:	b5 1e       	adc	r11, r21
    4d04:	61 01       	movw	r12, r2
    4d06:	01 e0       	ldi	r16, 0x01	; 1
    4d08:	10 e0       	ldi	r17, 0x00	; 0
    4d0a:	12 c0       	rjmp	.+36     	; 0x4d30 <vfprintf+0x160>
    4d0c:	f5 01       	movw	r30, r10
    4d0e:	c0 80       	ld	r12, Z
    4d10:	d1 80       	ldd	r13, Z+1	; 0x01
    4d12:	f6 fc       	sbrc	r15, 6
    4d14:	03 c0       	rjmp	.+6      	; 0x4d1c <vfprintf+0x14c>
    4d16:	6f ef       	ldi	r22, 0xFF	; 255
    4d18:	7f ef       	ldi	r23, 0xFF	; 255
    4d1a:	02 c0       	rjmp	.+4      	; 0x4d20 <vfprintf+0x150>
    4d1c:	69 2d       	mov	r22, r9
    4d1e:	70 e0       	ldi	r23, 0x00	; 0
    4d20:	42 e0       	ldi	r20, 0x02	; 2
    4d22:	50 e0       	ldi	r21, 0x00	; 0
    4d24:	a4 0e       	add	r10, r20
    4d26:	b5 1e       	adc	r11, r21
    4d28:	c6 01       	movw	r24, r12
    4d2a:	0e 94 db 27 	call	0x4fb6	; 0x4fb6 <strnlen>
    4d2e:	8c 01       	movw	r16, r24
    4d30:	5f e7       	ldi	r21, 0x7F	; 127
    4d32:	f5 22       	and	r15, r21
    4d34:	14 c0       	rjmp	.+40     	; 0x4d5e <vfprintf+0x18e>
    4d36:	f5 01       	movw	r30, r10
    4d38:	c0 80       	ld	r12, Z
    4d3a:	d1 80       	ldd	r13, Z+1	; 0x01
    4d3c:	f6 fc       	sbrc	r15, 6
    4d3e:	03 c0       	rjmp	.+6      	; 0x4d46 <vfprintf+0x176>
    4d40:	6f ef       	ldi	r22, 0xFF	; 255
    4d42:	7f ef       	ldi	r23, 0xFF	; 255
    4d44:	02 c0       	rjmp	.+4      	; 0x4d4a <vfprintf+0x17a>
    4d46:	69 2d       	mov	r22, r9
    4d48:	70 e0       	ldi	r23, 0x00	; 0
    4d4a:	42 e0       	ldi	r20, 0x02	; 2
    4d4c:	50 e0       	ldi	r21, 0x00	; 0
    4d4e:	a4 0e       	add	r10, r20
    4d50:	b5 1e       	adc	r11, r21
    4d52:	c6 01       	movw	r24, r12
    4d54:	0e 94 d0 27 	call	0x4fa0	; 0x4fa0 <strnlen_P>
    4d58:	8c 01       	movw	r16, r24
    4d5a:	50 e8       	ldi	r21, 0x80	; 128
    4d5c:	f5 2a       	or	r15, r21
    4d5e:	f3 fe       	sbrs	r15, 3
    4d60:	07 c0       	rjmp	.+14     	; 0x4d70 <vfprintf+0x1a0>
    4d62:	1a c0       	rjmp	.+52     	; 0x4d98 <vfprintf+0x1c8>
    4d64:	80 e2       	ldi	r24, 0x20	; 32
    4d66:	90 e0       	ldi	r25, 0x00	; 0
    4d68:	b3 01       	movw	r22, r6
    4d6a:	0e 94 e6 27 	call	0x4fcc	; 0x4fcc <fputc>
    4d6e:	ea 94       	dec	r14
    4d70:	8e 2d       	mov	r24, r14
    4d72:	90 e0       	ldi	r25, 0x00	; 0
    4d74:	08 17       	cp	r16, r24
    4d76:	19 07       	cpc	r17, r25
    4d78:	a8 f3       	brcs	.-22     	; 0x4d64 <vfprintf+0x194>
    4d7a:	0e c0       	rjmp	.+28     	; 0x4d98 <vfprintf+0x1c8>
    4d7c:	f6 01       	movw	r30, r12
    4d7e:	f7 fc       	sbrc	r15, 7
    4d80:	85 91       	lpm	r24, Z+
    4d82:	f7 fe       	sbrs	r15, 7
    4d84:	81 91       	ld	r24, Z+
    4d86:	6f 01       	movw	r12, r30
    4d88:	90 e0       	ldi	r25, 0x00	; 0
    4d8a:	b3 01       	movw	r22, r6
    4d8c:	0e 94 e6 27 	call	0x4fcc	; 0x4fcc <fputc>
    4d90:	e1 10       	cpse	r14, r1
    4d92:	ea 94       	dec	r14
    4d94:	01 50       	subi	r16, 0x01	; 1
    4d96:	10 40       	sbci	r17, 0x00	; 0
    4d98:	01 15       	cp	r16, r1
    4d9a:	11 05       	cpc	r17, r1
    4d9c:	79 f7       	brne	.-34     	; 0x4d7c <vfprintf+0x1ac>
    4d9e:	ea c0       	rjmp	.+468    	; 0x4f74 <vfprintf+0x3a4>
    4da0:	94 36       	cpi	r25, 0x64	; 100
    4da2:	11 f0       	breq	.+4      	; 0x4da8 <vfprintf+0x1d8>
    4da4:	99 36       	cpi	r25, 0x69	; 105
    4da6:	69 f5       	brne	.+90     	; 0x4e02 <vfprintf+0x232>
    4da8:	f7 fe       	sbrs	r15, 7
    4daa:	08 c0       	rjmp	.+16     	; 0x4dbc <vfprintf+0x1ec>
    4dac:	f5 01       	movw	r30, r10
    4dae:	20 81       	ld	r18, Z
    4db0:	31 81       	ldd	r19, Z+1	; 0x01
    4db2:	42 81       	ldd	r20, Z+2	; 0x02
    4db4:	53 81       	ldd	r21, Z+3	; 0x03
    4db6:	84 e0       	ldi	r24, 0x04	; 4
    4db8:	90 e0       	ldi	r25, 0x00	; 0
    4dba:	0a c0       	rjmp	.+20     	; 0x4dd0 <vfprintf+0x200>
    4dbc:	f5 01       	movw	r30, r10
    4dbe:	80 81       	ld	r24, Z
    4dc0:	91 81       	ldd	r25, Z+1	; 0x01
    4dc2:	9c 01       	movw	r18, r24
    4dc4:	44 27       	eor	r20, r20
    4dc6:	37 fd       	sbrc	r19, 7
    4dc8:	40 95       	com	r20
    4dca:	54 2f       	mov	r21, r20
    4dcc:	82 e0       	ldi	r24, 0x02	; 2
    4dce:	90 e0       	ldi	r25, 0x00	; 0
    4dd0:	a8 0e       	add	r10, r24
    4dd2:	b9 1e       	adc	r11, r25
    4dd4:	9f e6       	ldi	r25, 0x6F	; 111
    4dd6:	f9 22       	and	r15, r25
    4dd8:	57 ff       	sbrs	r21, 7
    4dda:	09 c0       	rjmp	.+18     	; 0x4dee <vfprintf+0x21e>
    4ddc:	50 95       	com	r21
    4dde:	40 95       	com	r20
    4de0:	30 95       	com	r19
    4de2:	21 95       	neg	r18
    4de4:	3f 4f       	sbci	r19, 0xFF	; 255
    4de6:	4f 4f       	sbci	r20, 0xFF	; 255
    4de8:	5f 4f       	sbci	r21, 0xFF	; 255
    4dea:	e0 e8       	ldi	r30, 0x80	; 128
    4dec:	fe 2a       	or	r15, r30
    4dee:	ca 01       	movw	r24, r20
    4df0:	b9 01       	movw	r22, r18
    4df2:	a1 01       	movw	r20, r2
    4df4:	2a e0       	ldi	r18, 0x0A	; 10
    4df6:	30 e0       	ldi	r19, 0x00	; 0
    4df8:	0e 94 12 28 	call	0x5024	; 0x5024 <__ultoa_invert>
    4dfc:	d8 2e       	mov	r13, r24
    4dfe:	d2 18       	sub	r13, r2
    4e00:	40 c0       	rjmp	.+128    	; 0x4e82 <vfprintf+0x2b2>
    4e02:	95 37       	cpi	r25, 0x75	; 117
    4e04:	29 f4       	brne	.+10     	; 0x4e10 <vfprintf+0x240>
    4e06:	1f 2d       	mov	r17, r15
    4e08:	1f 7e       	andi	r17, 0xEF	; 239
    4e0a:	2a e0       	ldi	r18, 0x0A	; 10
    4e0c:	30 e0       	ldi	r19, 0x00	; 0
    4e0e:	1d c0       	rjmp	.+58     	; 0x4e4a <vfprintf+0x27a>
    4e10:	1f 2d       	mov	r17, r15
    4e12:	19 7f       	andi	r17, 0xF9	; 249
    4e14:	9f 36       	cpi	r25, 0x6F	; 111
    4e16:	61 f0       	breq	.+24     	; 0x4e30 <vfprintf+0x260>
    4e18:	90 37       	cpi	r25, 0x70	; 112
    4e1a:	20 f4       	brcc	.+8      	; 0x4e24 <vfprintf+0x254>
    4e1c:	98 35       	cpi	r25, 0x58	; 88
    4e1e:	09 f0       	breq	.+2      	; 0x4e22 <vfprintf+0x252>
    4e20:	ac c0       	rjmp	.+344    	; 0x4f7a <vfprintf+0x3aa>
    4e22:	0f c0       	rjmp	.+30     	; 0x4e42 <vfprintf+0x272>
    4e24:	90 37       	cpi	r25, 0x70	; 112
    4e26:	39 f0       	breq	.+14     	; 0x4e36 <vfprintf+0x266>
    4e28:	98 37       	cpi	r25, 0x78	; 120
    4e2a:	09 f0       	breq	.+2      	; 0x4e2e <vfprintf+0x25e>
    4e2c:	a6 c0       	rjmp	.+332    	; 0x4f7a <vfprintf+0x3aa>
    4e2e:	04 c0       	rjmp	.+8      	; 0x4e38 <vfprintf+0x268>
    4e30:	28 e0       	ldi	r18, 0x08	; 8
    4e32:	30 e0       	ldi	r19, 0x00	; 0
    4e34:	0a c0       	rjmp	.+20     	; 0x4e4a <vfprintf+0x27a>
    4e36:	10 61       	ori	r17, 0x10	; 16
    4e38:	14 fd       	sbrc	r17, 4
    4e3a:	14 60       	ori	r17, 0x04	; 4
    4e3c:	20 e1       	ldi	r18, 0x10	; 16
    4e3e:	30 e0       	ldi	r19, 0x00	; 0
    4e40:	04 c0       	rjmp	.+8      	; 0x4e4a <vfprintf+0x27a>
    4e42:	14 fd       	sbrc	r17, 4
    4e44:	16 60       	ori	r17, 0x06	; 6
    4e46:	20 e1       	ldi	r18, 0x10	; 16
    4e48:	32 e0       	ldi	r19, 0x02	; 2
    4e4a:	17 ff       	sbrs	r17, 7
    4e4c:	08 c0       	rjmp	.+16     	; 0x4e5e <vfprintf+0x28e>
    4e4e:	f5 01       	movw	r30, r10
    4e50:	60 81       	ld	r22, Z
    4e52:	71 81       	ldd	r23, Z+1	; 0x01
    4e54:	82 81       	ldd	r24, Z+2	; 0x02
    4e56:	93 81       	ldd	r25, Z+3	; 0x03
    4e58:	44 e0       	ldi	r20, 0x04	; 4
    4e5a:	50 e0       	ldi	r21, 0x00	; 0
    4e5c:	08 c0       	rjmp	.+16     	; 0x4e6e <vfprintf+0x29e>
    4e5e:	f5 01       	movw	r30, r10
    4e60:	80 81       	ld	r24, Z
    4e62:	91 81       	ldd	r25, Z+1	; 0x01
    4e64:	bc 01       	movw	r22, r24
    4e66:	80 e0       	ldi	r24, 0x00	; 0
    4e68:	90 e0       	ldi	r25, 0x00	; 0
    4e6a:	42 e0       	ldi	r20, 0x02	; 2
    4e6c:	50 e0       	ldi	r21, 0x00	; 0
    4e6e:	a4 0e       	add	r10, r20
    4e70:	b5 1e       	adc	r11, r21
    4e72:	a1 01       	movw	r20, r2
    4e74:	0e 94 12 28 	call	0x5024	; 0x5024 <__ultoa_invert>
    4e78:	d8 2e       	mov	r13, r24
    4e7a:	d2 18       	sub	r13, r2
    4e7c:	8f e7       	ldi	r24, 0x7F	; 127
    4e7e:	f8 2e       	mov	r15, r24
    4e80:	f1 22       	and	r15, r17
    4e82:	f6 fe       	sbrs	r15, 6
    4e84:	0b c0       	rjmp	.+22     	; 0x4e9c <vfprintf+0x2cc>
    4e86:	5e ef       	ldi	r21, 0xFE	; 254
    4e88:	f5 22       	and	r15, r21
    4e8a:	d9 14       	cp	r13, r9
    4e8c:	38 f4       	brcc	.+14     	; 0x4e9c <vfprintf+0x2cc>
    4e8e:	f4 fe       	sbrs	r15, 4
    4e90:	07 c0       	rjmp	.+14     	; 0x4ea0 <vfprintf+0x2d0>
    4e92:	f2 fc       	sbrc	r15, 2
    4e94:	05 c0       	rjmp	.+10     	; 0x4ea0 <vfprintf+0x2d0>
    4e96:	8f ee       	ldi	r24, 0xEF	; 239
    4e98:	f8 22       	and	r15, r24
    4e9a:	02 c0       	rjmp	.+4      	; 0x4ea0 <vfprintf+0x2d0>
    4e9c:	1d 2d       	mov	r17, r13
    4e9e:	01 c0       	rjmp	.+2      	; 0x4ea2 <vfprintf+0x2d2>
    4ea0:	19 2d       	mov	r17, r9
    4ea2:	f4 fe       	sbrs	r15, 4
    4ea4:	0d c0       	rjmp	.+26     	; 0x4ec0 <vfprintf+0x2f0>
    4ea6:	fe 01       	movw	r30, r28
    4ea8:	ed 0d       	add	r30, r13
    4eaa:	f1 1d       	adc	r31, r1
    4eac:	80 81       	ld	r24, Z
    4eae:	80 33       	cpi	r24, 0x30	; 48
    4eb0:	19 f4       	brne	.+6      	; 0x4eb8 <vfprintf+0x2e8>
    4eb2:	99 ee       	ldi	r25, 0xE9	; 233
    4eb4:	f9 22       	and	r15, r25
    4eb6:	08 c0       	rjmp	.+16     	; 0x4ec8 <vfprintf+0x2f8>
    4eb8:	1f 5f       	subi	r17, 0xFF	; 255
    4eba:	f2 fe       	sbrs	r15, 2
    4ebc:	05 c0       	rjmp	.+10     	; 0x4ec8 <vfprintf+0x2f8>
    4ebe:	03 c0       	rjmp	.+6      	; 0x4ec6 <vfprintf+0x2f6>
    4ec0:	8f 2d       	mov	r24, r15
    4ec2:	86 78       	andi	r24, 0x86	; 134
    4ec4:	09 f0       	breq	.+2      	; 0x4ec8 <vfprintf+0x2f8>
    4ec6:	1f 5f       	subi	r17, 0xFF	; 255
    4ec8:	0f 2d       	mov	r16, r15
    4eca:	f3 fc       	sbrc	r15, 3
    4ecc:	14 c0       	rjmp	.+40     	; 0x4ef6 <vfprintf+0x326>
    4ece:	f0 fe       	sbrs	r15, 0
    4ed0:	0f c0       	rjmp	.+30     	; 0x4ef0 <vfprintf+0x320>
    4ed2:	1e 15       	cp	r17, r14
    4ed4:	10 f0       	brcs	.+4      	; 0x4eda <vfprintf+0x30a>
    4ed6:	9d 2c       	mov	r9, r13
    4ed8:	0b c0       	rjmp	.+22     	; 0x4ef0 <vfprintf+0x320>
    4eda:	9d 2c       	mov	r9, r13
    4edc:	9e 0c       	add	r9, r14
    4ede:	91 1a       	sub	r9, r17
    4ee0:	1e 2d       	mov	r17, r14
    4ee2:	06 c0       	rjmp	.+12     	; 0x4ef0 <vfprintf+0x320>
    4ee4:	80 e2       	ldi	r24, 0x20	; 32
    4ee6:	90 e0       	ldi	r25, 0x00	; 0
    4ee8:	b3 01       	movw	r22, r6
    4eea:	0e 94 e6 27 	call	0x4fcc	; 0x4fcc <fputc>
    4eee:	1f 5f       	subi	r17, 0xFF	; 255
    4ef0:	1e 15       	cp	r17, r14
    4ef2:	c0 f3       	brcs	.-16     	; 0x4ee4 <vfprintf+0x314>
    4ef4:	04 c0       	rjmp	.+8      	; 0x4efe <vfprintf+0x32e>
    4ef6:	1e 15       	cp	r17, r14
    4ef8:	10 f4       	brcc	.+4      	; 0x4efe <vfprintf+0x32e>
    4efa:	e1 1a       	sub	r14, r17
    4efc:	01 c0       	rjmp	.+2      	; 0x4f00 <vfprintf+0x330>
    4efe:	ee 24       	eor	r14, r14
    4f00:	04 ff       	sbrs	r16, 4
    4f02:	0f c0       	rjmp	.+30     	; 0x4f22 <vfprintf+0x352>
    4f04:	80 e3       	ldi	r24, 0x30	; 48
    4f06:	90 e0       	ldi	r25, 0x00	; 0
    4f08:	b3 01       	movw	r22, r6
    4f0a:	0e 94 e6 27 	call	0x4fcc	; 0x4fcc <fputc>
    4f0e:	02 ff       	sbrs	r16, 2
    4f10:	1d c0       	rjmp	.+58     	; 0x4f4c <vfprintf+0x37c>
    4f12:	01 fd       	sbrc	r16, 1
    4f14:	03 c0       	rjmp	.+6      	; 0x4f1c <vfprintf+0x34c>
    4f16:	88 e7       	ldi	r24, 0x78	; 120
    4f18:	90 e0       	ldi	r25, 0x00	; 0
    4f1a:	0e c0       	rjmp	.+28     	; 0x4f38 <vfprintf+0x368>
    4f1c:	88 e5       	ldi	r24, 0x58	; 88
    4f1e:	90 e0       	ldi	r25, 0x00	; 0
    4f20:	0b c0       	rjmp	.+22     	; 0x4f38 <vfprintf+0x368>
    4f22:	80 2f       	mov	r24, r16
    4f24:	86 78       	andi	r24, 0x86	; 134
    4f26:	91 f0       	breq	.+36     	; 0x4f4c <vfprintf+0x37c>
    4f28:	01 ff       	sbrs	r16, 1
    4f2a:	02 c0       	rjmp	.+4      	; 0x4f30 <vfprintf+0x360>
    4f2c:	8b e2       	ldi	r24, 0x2B	; 43
    4f2e:	01 c0       	rjmp	.+2      	; 0x4f32 <vfprintf+0x362>
    4f30:	80 e2       	ldi	r24, 0x20	; 32
    4f32:	f7 fc       	sbrc	r15, 7
    4f34:	8d e2       	ldi	r24, 0x2D	; 45
    4f36:	90 e0       	ldi	r25, 0x00	; 0
    4f38:	b3 01       	movw	r22, r6
    4f3a:	0e 94 e6 27 	call	0x4fcc	; 0x4fcc <fputc>
    4f3e:	06 c0       	rjmp	.+12     	; 0x4f4c <vfprintf+0x37c>
    4f40:	80 e3       	ldi	r24, 0x30	; 48
    4f42:	90 e0       	ldi	r25, 0x00	; 0
    4f44:	b3 01       	movw	r22, r6
    4f46:	0e 94 e6 27 	call	0x4fcc	; 0x4fcc <fputc>
    4f4a:	9a 94       	dec	r9
    4f4c:	d9 14       	cp	r13, r9
    4f4e:	c0 f3       	brcs	.-16     	; 0x4f40 <vfprintf+0x370>
    4f50:	da 94       	dec	r13
    4f52:	f1 01       	movw	r30, r2
    4f54:	ed 0d       	add	r30, r13
    4f56:	f1 1d       	adc	r31, r1
    4f58:	80 81       	ld	r24, Z
    4f5a:	90 e0       	ldi	r25, 0x00	; 0
    4f5c:	b3 01       	movw	r22, r6
    4f5e:	0e 94 e6 27 	call	0x4fcc	; 0x4fcc <fputc>
    4f62:	dd 20       	and	r13, r13
    4f64:	a9 f7       	brne	.-22     	; 0x4f50 <vfprintf+0x380>
    4f66:	06 c0       	rjmp	.+12     	; 0x4f74 <vfprintf+0x3a4>
    4f68:	80 e2       	ldi	r24, 0x20	; 32
    4f6a:	90 e0       	ldi	r25, 0x00	; 0
    4f6c:	b3 01       	movw	r22, r6
    4f6e:	0e 94 e6 27 	call	0x4fcc	; 0x4fcc <fputc>
    4f72:	ea 94       	dec	r14
    4f74:	ee 20       	and	r14, r14
    4f76:	c1 f7       	brne	.-16     	; 0x4f68 <vfprintf+0x398>
    4f78:	43 ce       	rjmp	.-890    	; 0x4c00 <vfprintf+0x30>
    4f7a:	f3 01       	movw	r30, r6
    4f7c:	66 81       	ldd	r22, Z+6	; 0x06
    4f7e:	77 81       	ldd	r23, Z+7	; 0x07
    4f80:	cb 01       	movw	r24, r22
    4f82:	2b 96       	adiw	r28, 0x0b	; 11
    4f84:	e2 e1       	ldi	r30, 0x12	; 18
    4f86:	0c 94 1b 25 	jmp	0x4a36	; 0x4a36 <__epilogue_restores__>

00004f8a <__eerd_word_m328p>:
    4f8a:	a8 e1       	ldi	r26, 0x18	; 24
    4f8c:	b0 e0       	ldi	r27, 0x00	; 0
    4f8e:	42 e0       	ldi	r20, 0x02	; 2
    4f90:	50 e0       	ldi	r21, 0x00	; 0
    4f92:	0c 94 ac 28 	jmp	0x5158	; 0x5158 <__eerd_blraw_m328p>

00004f96 <__eewr_word_m328p>:
    4f96:	0e 94 ba 28 	call	0x5174	; 0x5174 <__eewr_byte_m328p>
    4f9a:	27 2f       	mov	r18, r23
    4f9c:	0c 94 bb 28 	jmp	0x5176	; 0x5176 <__eewr_r18_m328p>

00004fa0 <strnlen_P>:
    4fa0:	fc 01       	movw	r30, r24
    4fa2:	05 90       	lpm	r0, Z+
    4fa4:	61 50       	subi	r22, 0x01	; 1
    4fa6:	70 40       	sbci	r23, 0x00	; 0
    4fa8:	01 10       	cpse	r0, r1
    4faa:	d8 f7       	brcc	.-10     	; 0x4fa2 <strnlen_P+0x2>
    4fac:	80 95       	com	r24
    4fae:	90 95       	com	r25
    4fb0:	8e 0f       	add	r24, r30
    4fb2:	9f 1f       	adc	r25, r31
    4fb4:	08 95       	ret

00004fb6 <strnlen>:
    4fb6:	fc 01       	movw	r30, r24
    4fb8:	61 50       	subi	r22, 0x01	; 1
    4fba:	70 40       	sbci	r23, 0x00	; 0
    4fbc:	01 90       	ld	r0, Z+
    4fbe:	01 10       	cpse	r0, r1
    4fc0:	d8 f7       	brcc	.-10     	; 0x4fb8 <strnlen+0x2>
    4fc2:	80 95       	com	r24
    4fc4:	90 95       	com	r25
    4fc6:	8e 0f       	add	r24, r30
    4fc8:	9f 1f       	adc	r25, r31
    4fca:	08 95       	ret

00004fcc <fputc>:
    4fcc:	0f 93       	push	r16
    4fce:	1f 93       	push	r17
    4fd0:	cf 93       	push	r28
    4fd2:	df 93       	push	r29
    4fd4:	8c 01       	movw	r16, r24
    4fd6:	eb 01       	movw	r28, r22
    4fd8:	8b 81       	ldd	r24, Y+3	; 0x03
    4fda:	81 ff       	sbrs	r24, 1
    4fdc:	1b c0       	rjmp	.+54     	; 0x5014 <fputc+0x48>
    4fde:	82 ff       	sbrs	r24, 2
    4fe0:	0d c0       	rjmp	.+26     	; 0x4ffc <fputc+0x30>
    4fe2:	2e 81       	ldd	r18, Y+6	; 0x06
    4fe4:	3f 81       	ldd	r19, Y+7	; 0x07
    4fe6:	8c 81       	ldd	r24, Y+4	; 0x04
    4fe8:	9d 81       	ldd	r25, Y+5	; 0x05
    4fea:	28 17       	cp	r18, r24
    4fec:	39 07       	cpc	r19, r25
    4fee:	64 f4       	brge	.+24     	; 0x5008 <fputc+0x3c>
    4ff0:	e8 81       	ld	r30, Y
    4ff2:	f9 81       	ldd	r31, Y+1	; 0x01
    4ff4:	01 93       	st	Z+, r16
    4ff6:	f9 83       	std	Y+1, r31	; 0x01
    4ff8:	e8 83       	st	Y, r30
    4ffa:	06 c0       	rjmp	.+12     	; 0x5008 <fputc+0x3c>
    4ffc:	e8 85       	ldd	r30, Y+8	; 0x08
    4ffe:	f9 85       	ldd	r31, Y+9	; 0x09
    5000:	80 2f       	mov	r24, r16
    5002:	09 95       	icall
    5004:	89 2b       	or	r24, r25
    5006:	31 f4       	brne	.+12     	; 0x5014 <fputc+0x48>
    5008:	8e 81       	ldd	r24, Y+6	; 0x06
    500a:	9f 81       	ldd	r25, Y+7	; 0x07
    500c:	01 96       	adiw	r24, 0x01	; 1
    500e:	9f 83       	std	Y+7, r25	; 0x07
    5010:	8e 83       	std	Y+6, r24	; 0x06
    5012:	02 c0       	rjmp	.+4      	; 0x5018 <fputc+0x4c>
    5014:	0f ef       	ldi	r16, 0xFF	; 255
    5016:	1f ef       	ldi	r17, 0xFF	; 255
    5018:	c8 01       	movw	r24, r16
    501a:	df 91       	pop	r29
    501c:	cf 91       	pop	r28
    501e:	1f 91       	pop	r17
    5020:	0f 91       	pop	r16
    5022:	08 95       	ret

00005024 <__ultoa_invert>:
    5024:	fa 01       	movw	r30, r20
    5026:	aa 27       	eor	r26, r26
    5028:	28 30       	cpi	r18, 0x08	; 8
    502a:	51 f1       	breq	.+84     	; 0x5080 <__ultoa_invert+0x5c>
    502c:	20 31       	cpi	r18, 0x10	; 16
    502e:	81 f1       	breq	.+96     	; 0x5090 <__ultoa_invert+0x6c>
    5030:	e8 94       	clt
    5032:	6f 93       	push	r22
    5034:	6e 7f       	andi	r22, 0xFE	; 254
    5036:	6e 5f       	subi	r22, 0xFE	; 254
    5038:	7f 4f       	sbci	r23, 0xFF	; 255
    503a:	8f 4f       	sbci	r24, 0xFF	; 255
    503c:	9f 4f       	sbci	r25, 0xFF	; 255
    503e:	af 4f       	sbci	r26, 0xFF	; 255
    5040:	b1 e0       	ldi	r27, 0x01	; 1
    5042:	3e d0       	rcall	.+124    	; 0x50c0 <__ultoa_invert+0x9c>
    5044:	b4 e0       	ldi	r27, 0x04	; 4
    5046:	3c d0       	rcall	.+120    	; 0x50c0 <__ultoa_invert+0x9c>
    5048:	67 0f       	add	r22, r23
    504a:	78 1f       	adc	r23, r24
    504c:	89 1f       	adc	r24, r25
    504e:	9a 1f       	adc	r25, r26
    5050:	a1 1d       	adc	r26, r1
    5052:	68 0f       	add	r22, r24
    5054:	79 1f       	adc	r23, r25
    5056:	8a 1f       	adc	r24, r26
    5058:	91 1d       	adc	r25, r1
    505a:	a1 1d       	adc	r26, r1
    505c:	6a 0f       	add	r22, r26
    505e:	71 1d       	adc	r23, r1
    5060:	81 1d       	adc	r24, r1
    5062:	91 1d       	adc	r25, r1
    5064:	a1 1d       	adc	r26, r1
    5066:	20 d0       	rcall	.+64     	; 0x50a8 <__ultoa_invert+0x84>
    5068:	09 f4       	brne	.+2      	; 0x506c <__ultoa_invert+0x48>
    506a:	68 94       	set
    506c:	3f 91       	pop	r19
    506e:	2a e0       	ldi	r18, 0x0A	; 10
    5070:	26 9f       	mul	r18, r22
    5072:	11 24       	eor	r1, r1
    5074:	30 19       	sub	r19, r0
    5076:	30 5d       	subi	r19, 0xD0	; 208
    5078:	31 93       	st	Z+, r19
    507a:	de f6       	brtc	.-74     	; 0x5032 <__ultoa_invert+0xe>
    507c:	cf 01       	movw	r24, r30
    507e:	08 95       	ret
    5080:	46 2f       	mov	r20, r22
    5082:	47 70       	andi	r20, 0x07	; 7
    5084:	40 5d       	subi	r20, 0xD0	; 208
    5086:	41 93       	st	Z+, r20
    5088:	b3 e0       	ldi	r27, 0x03	; 3
    508a:	0f d0       	rcall	.+30     	; 0x50aa <__ultoa_invert+0x86>
    508c:	c9 f7       	brne	.-14     	; 0x5080 <__ultoa_invert+0x5c>
    508e:	f6 cf       	rjmp	.-20     	; 0x507c <__ultoa_invert+0x58>
    5090:	46 2f       	mov	r20, r22
    5092:	4f 70       	andi	r20, 0x0F	; 15
    5094:	40 5d       	subi	r20, 0xD0	; 208
    5096:	4a 33       	cpi	r20, 0x3A	; 58
    5098:	18 f0       	brcs	.+6      	; 0x50a0 <__ultoa_invert+0x7c>
    509a:	49 5d       	subi	r20, 0xD9	; 217
    509c:	31 fd       	sbrc	r19, 1
    509e:	40 52       	subi	r20, 0x20	; 32
    50a0:	41 93       	st	Z+, r20
    50a2:	02 d0       	rcall	.+4      	; 0x50a8 <__ultoa_invert+0x84>
    50a4:	a9 f7       	brne	.-22     	; 0x5090 <__ultoa_invert+0x6c>
    50a6:	ea cf       	rjmp	.-44     	; 0x507c <__ultoa_invert+0x58>
    50a8:	b4 e0       	ldi	r27, 0x04	; 4
    50aa:	a6 95       	lsr	r26
    50ac:	97 95       	ror	r25
    50ae:	87 95       	ror	r24
    50b0:	77 95       	ror	r23
    50b2:	67 95       	ror	r22
    50b4:	ba 95       	dec	r27
    50b6:	c9 f7       	brne	.-14     	; 0x50aa <__ultoa_invert+0x86>
    50b8:	00 97       	sbiw	r24, 0x00	; 0
    50ba:	61 05       	cpc	r22, r1
    50bc:	71 05       	cpc	r23, r1
    50be:	08 95       	ret
    50c0:	9b 01       	movw	r18, r22
    50c2:	ac 01       	movw	r20, r24
    50c4:	0a 2e       	mov	r0, r26
    50c6:	06 94       	lsr	r0
    50c8:	57 95       	ror	r21
    50ca:	47 95       	ror	r20
    50cc:	37 95       	ror	r19
    50ce:	27 95       	ror	r18
    50d0:	ba 95       	dec	r27
    50d2:	c9 f7       	brne	.-14     	; 0x50c6 <__ultoa_invert+0xa2>
    50d4:	62 0f       	add	r22, r18
    50d6:	73 1f       	adc	r23, r19
    50d8:	84 1f       	adc	r24, r20
    50da:	95 1f       	adc	r25, r21
    50dc:	a0 1d       	adc	r26, r0
    50de:	08 95       	ret

000050e0 <__fp_mpack>:
    50e0:	9f 3f       	cpi	r25, 0xFF	; 255
    50e2:	31 f0       	breq	.+12     	; 0x50f0 <__fp_mpack_finite+0xc>

000050e4 <__fp_mpack_finite>:
    50e4:	91 50       	subi	r25, 0x01	; 1
    50e6:	20 f4       	brcc	.+8      	; 0x50f0 <__fp_mpack_finite+0xc>
    50e8:	87 95       	ror	r24
    50ea:	77 95       	ror	r23
    50ec:	67 95       	ror	r22
    50ee:	b7 95       	ror	r27
    50f0:	88 0f       	add	r24, r24
    50f2:	91 1d       	adc	r25, r1
    50f4:	96 95       	lsr	r25
    50f6:	87 95       	ror	r24
    50f8:	97 f9       	bld	r25, 7
    50fa:	08 95       	ret

000050fc <__fp_nan>:
    50fc:	9f ef       	ldi	r25, 0xFF	; 255
    50fe:	80 ec       	ldi	r24, 0xC0	; 192
    5100:	08 95       	ret

00005102 <__fp_norm2>:
    5102:	91 50       	subi	r25, 0x01	; 1
    5104:	50 40       	sbci	r21, 0x00	; 0
    5106:	66 0f       	add	r22, r22
    5108:	77 1f       	adc	r23, r23
    510a:	88 1f       	adc	r24, r24
    510c:	d2 f7       	brpl	.-12     	; 0x5102 <__fp_norm2>
    510e:	08 95       	ret

00005110 <__fp_split3>:
    5110:	57 fd       	sbrc	r21, 7
    5112:	90 58       	subi	r25, 0x80	; 128
    5114:	44 0f       	add	r20, r20
    5116:	55 1f       	adc	r21, r21
    5118:	59 f0       	breq	.+22     	; 0x5130 <__fp_splitA+0x10>
    511a:	5f 3f       	cpi	r21, 0xFF	; 255
    511c:	71 f0       	breq	.+28     	; 0x513a <__fp_splitA+0x1a>
    511e:	47 95       	ror	r20

00005120 <__fp_splitA>:
    5120:	88 0f       	add	r24, r24
    5122:	97 fb       	bst	r25, 7
    5124:	99 1f       	adc	r25, r25
    5126:	61 f0       	breq	.+24     	; 0x5140 <__fp_splitA+0x20>
    5128:	9f 3f       	cpi	r25, 0xFF	; 255
    512a:	79 f0       	breq	.+30     	; 0x514a <__fp_splitA+0x2a>
    512c:	87 95       	ror	r24
    512e:	08 95       	ret
    5130:	12 16       	cp	r1, r18
    5132:	13 06       	cpc	r1, r19
    5134:	14 06       	cpc	r1, r20
    5136:	55 1f       	adc	r21, r21
    5138:	f2 cf       	rjmp	.-28     	; 0x511e <__fp_split3+0xe>
    513a:	46 95       	lsr	r20
    513c:	f1 df       	rcall	.-30     	; 0x5120 <__fp_splitA>
    513e:	08 c0       	rjmp	.+16     	; 0x5150 <__fp_splitA+0x30>
    5140:	16 16       	cp	r1, r22
    5142:	17 06       	cpc	r1, r23
    5144:	18 06       	cpc	r1, r24
    5146:	99 1f       	adc	r25, r25
    5148:	f1 cf       	rjmp	.-30     	; 0x512c <__fp_splitA+0xc>
    514a:	86 95       	lsr	r24
    514c:	71 05       	cpc	r23, r1
    514e:	61 05       	cpc	r22, r1
    5150:	08 94       	sec
    5152:	08 95       	ret

00005154 <__eerd_block_m328p>:
    5154:	dc 01       	movw	r26, r24
    5156:	cb 01       	movw	r24, r22

00005158 <__eerd_blraw_m328p>:
    5158:	fc 01       	movw	r30, r24
    515a:	f9 99       	sbic	0x1f, 1	; 31
    515c:	fe cf       	rjmp	.-4      	; 0x515a <__eerd_blraw_m328p+0x2>
    515e:	06 c0       	rjmp	.+12     	; 0x516c <__eerd_blraw_m328p+0x14>
    5160:	f2 bd       	out	0x22, r31	; 34
    5162:	e1 bd       	out	0x21, r30	; 33
    5164:	f8 9a       	sbi	0x1f, 0	; 31
    5166:	31 96       	adiw	r30, 0x01	; 1
    5168:	00 b4       	in	r0, 0x20	; 32
    516a:	0d 92       	st	X+, r0
    516c:	41 50       	subi	r20, 0x01	; 1
    516e:	50 40       	sbci	r21, 0x00	; 0
    5170:	b8 f7       	brcc	.-18     	; 0x5160 <__eerd_blraw_m328p+0x8>
    5172:	08 95       	ret

00005174 <__eewr_byte_m328p>:
    5174:	26 2f       	mov	r18, r22

00005176 <__eewr_r18_m328p>:
    5176:	f9 99       	sbic	0x1f, 1	; 31
    5178:	fe cf       	rjmp	.-4      	; 0x5176 <__eewr_r18_m328p>
    517a:	1f ba       	out	0x1f, r1	; 31
    517c:	92 bd       	out	0x22, r25	; 34
    517e:	81 bd       	out	0x21, r24	; 33
    5180:	20 bd       	out	0x20, r18	; 32
    5182:	0f b6       	in	r0, 0x3f	; 63
    5184:	f8 94       	cli
    5186:	fa 9a       	sbi	0x1f, 2	; 31
    5188:	f9 9a       	sbi	0x1f, 1	; 31
    518a:	0f be       	out	0x3f, r0	; 63
    518c:	01 96       	adiw	r24, 0x01	; 1
    518e:	08 95       	ret

00005190 <_exit>:
    5190:	f8 94       	cli

00005192 <__stop_program>:
    5192:	ff cf       	rjmp	.-2      	; 0x5192 <__stop_program>
